(dp1
I0
S'raining'
p2
sI1
S'hordes'
p3
sI2
S'yellow'
p4
sI3
S'four'
p5
sI4
S"friend's"
p6
sI5
S'hanging'
p7
sI6
S'aggression'
p8
sI7
S'marching'
p9
sI8
S'looking'
p10
sI9
S'electricity'
p11
sI10
S"johnson's"
p12
sI11
S'lord'
p13
sI12
S'immature'
p14
sI13
S'flicking'
p15
sI14
S'kennels'
p16
sI15
S'deli'
p17
sI16
S'regional'
p18
sI17
S'forties'
p19
sI18
S'screaming'
p20
sI19
S'basics'
p21
sI20
S'wednesday'
p22
sI21
S'piling'
p23
sI22
S'broiled'
p24
sI23
S'stereotypical'
p25
sI24
S'ornamental'
p26
sI25
S'bill'
p27
sI26
S'tired'
p28
sI27
S'miller'
p29
sI28
S'bacon'
p30
sI29
S'frederick'
p31
sI30
S'tires'
p32
sI31
S'miniatures'
p33
sI32
S'second'
p34
sI33
S'shrugging'
p35
sI34
S'blouse'
p36
sI35
S'errors'
p37
sI36
S"this'll"
p38
sI37
S'forgetting'
p39
sI38
S'cooking'
p40
sI39
S'contributed'
p41
sI40
S'fingers'
p42
sI41
S'specialist'
p43
sI42
S'reporter'
p44
sI43
S'interrupting'
p45
sI44
S'jasmine'
p46
sI45
S'interdependent'
p47
sI46
S'here'
p48
sI47
S'china'
p49
sI48
S'hers'
p50
sI49
S'affiliated'
p51
sI50
S'calculate'
p52
sI51
S'kids'
p53
sI52
S'reports'
p54
sI53
S'chewables'
p55
sI54
S"i'd"
p56
sI55
S'poston'
p57
sI56
S'military'
p58
sI57
S"i'm"
p59
sI58
S'golden'
p60
sI59
S'divide'
p61
sI60
S'replace'
p62
sI61
S'brought'
p63
sI62
S'cocaine'
p64
sI63
S'schwinn'
p65
sI64
S'unit'
p66
sI65
S'spoke'
p67
sI66
S'backing'
p68
sI67
S'music'
p69
sI68
S'therefore'
p70
sI69
S'strike'
p71
sI70
S'until'
p72
sI71
S'teaspoon'
p73
sI72
S'females'
p74
sI73
S'holy'
p75
sI74
S'relax'
p76
sI75
S'successful'
p77
sI76
S'brings'
p78
sI77
S'yahoo'
p79
sI78
S'hurt'
p80
sI79
S'glass'
p81
sI80
S'hole'
p82
sI81
S'hold'
p83
sI82
S'circumstances'
p84
sI83
S'intake'
p85
sI84
S'morally'
p86
sI85
S'locked'
p87
sI86
S'pursue'
p88
sI87
S'blade'
p89
sI88
S'temperatures'
p90
sI89
S'example'
p91
sI90
S'household'
p92
sI91
S'organized'
p93
sI92
S'caution'
p94
sI93
S'reviewing'
p95
sI94
S'want'
p96
sI95
S'counseling'
p97
sI96
S'absolute'
p98
sI97
S"collector's"
p99
sI98
S'complaining'
p100
sI99
S'travel'
p101
sI100
S'feature'
p102
sI101
S'machine'
p103
sI102
S'how'
p104
sI103
S'hot'
p105
sI104
S'hop'
p106
sI105
S'yum'
p107
sI106
S'beauty'
p108
sI107
S'funny'
p109
sI108
S'typed'
p110
sI109
S'shores'
p111
sI110
S'dinosaurs'
p112
sI111
S'wrong'
p113
sI112
S'nonprofit'
p114
sI113
S'types'
p115
sI114
S'effective'
p116
sI115
S'cigarettes'
p117
sI116
S'beeping'
p118
sI117
S'snowballs'
p119
sI118
S'ho'
p120
sI119
S'keeps'
p121
sI120
S'democratic'
p122
sI121
S'wing'
p123
sI122
S'wind'
p124
sI123
S'wine'
p125
sI124
S'dreamed'
p126
sI125
S'rewarded'
p127
sI126
S'fit'
p128
sI127
S'bringing'
p129
sI128
S'fix'
p130
sI129
S'striking'
p131
sI130
S'd._v._d.'
p132
sI131
S'hidden'
p133
sI132
S'easier'
p134
sI133
S'slicing'
p135
sI134
S'educating'
p136
sI135
S"lamb's"
p137
sI136
S'effects'
p138
sI137
S'schools'
p139
sI138
S'sixteen'
p140
sI139
S'silver'
p141
sI140
S'structural'
p142
sI141
S'thyme'
p143
sI142
S'whacking'
p144
sI143
S'lockout'
p145
sI144
S'volcano'
p146
sI145
S'expectancy'
p147
sI146
S'financial'
p148
sI147
S'directly'
p149
sI148
S'series'
p150
sI149
S'spider'
p151
sI150
S'bowls'
p152
sI151
S'strips'
p153
sI152
S"we'd"
p154
sI153
S'ring'
p155
sI154
S'customary'
p156
sI155
S'mason'
p157
sI156
S'encourage'
p158
sI157
S'adapt'
p159
sI158
S'engineer'
p160
sI159
S'foundation'
p161
sI160
S'threatened'
p162
sI161
S'surveys'
p163
sI162
S'sensory'
p164
sI163
S'jennie'
p165
sI164
S'checked'
p166
sI165
S'alert'
p167
sI166
S'enormous'
p168
sI167
S'exposing'
p169
sI168
S'shelves'
p170
sI169
S'heading'
p171
sI170
S'silicon'
p172
sI171
S'disturbed'
p173
sI172
S"today's"
p174
sI173
S'r.'
p175
sI174
S'elmo'
p176
sI175
S'channels'
p177
sI176
S'wash'
p178
sI177
S'spinning'
p179
sI178
S'basketball'
p180
sI179
S'service'
p181
sI180
S'lawsuits'
p182
sI181
S'needed'
p183
sI182
S'master'
p184
sI183
S'hypothetical'
p185
sI184
S'legs'
p186
sI185
S'listen'
p187
sI186
S'danish'
p188
sI187
S'collapse'
p189
sI188
S'predictable'
p190
sI189
S'palsy'
p191
sI190
S'crawl'
p192
sI191
S'carrick'
p193
sI192
S'showed'
p194
sI193
S'tree'
p195
sI194
S'likely'
p196
sI195
S'nations'
p197
sI196
S'seminars'
p198
sI197
S'pneumonia'
p199
sI198
S'feeling'
p200
sI199
S'acquisition'
p201
sI200
S'runner'
p202
sI201
S'boston'
p203
sI202
S'spectrum'
p204
sI203
S'dozen'
p205
sI204
S'affairs'
p206
sI205
S'concrete'
p207
sI206
S'responsible'
p208
sI207
S'metallic'
p209
sI208
S'recommended'
p210
sI209
S'causing'
p211
sI210
S'amusing'
p212
sI211
S'doors'
p213
sI212
S'hum'
p214
sI213
S'paintbrush'
p215
sI214
S'buck'
p216
sI215
S'shall'
p217
sI216
S'huh'
p218
sI217
S'object'
p219
sI218
S'mouth'
p220
sI219
S'addict'
p221
sI220
S'letter'
p222
sI221
S'videotaping'
p223
sI222
S'retaining'
p224
sI223
S'drought'
p225
sI224
S'thriller'
p226
sI225
S'dummy'
p227
sI226
S'episode'
p228
sI227
S'professor'
p229
sI228
S'camp'
p230
sI229
S'tech'
p231
sI230
S'came'
p232
sI231
S'marvel'
p233
sI232
S'saying'
p234
sI233
S'bomb'
p235
sI234
S'insects'
p236
sI235
S'teresa'
p237
sI236
S'gauge'
p238
sI237
S'participate'
p239
sI238
S'tempted'
p240
sI239
S'lessons'
p241
sI240
S'orleans'
p242
sI241
S'touches'
p243
sI242
S'busy'
p244
sI243
S'menu'
p245
sI244
S"baby's"
p246
sI245
S'appreciated'
p247
sI246
S'bush'
p248
sI247
S'touched'
p249
sI248
S'rich'
p250
sI249
S'foolishly'
p251
sI250
S'greenwood'
p252
sI251
S'plate'
p253
sI252
S'a._b._c.'
p254
sI253
S'pocket'
p255
sI254
S'altogether'
p256
sI255
S'net'
p257
sI256
S'nicely'
p258
sI257
S'patch'
p259
sI258
S'release'
p260
sI259
S'respond'
p261
sI260
S'blew'
p262
sI261
S'mandatory'
p263
sI262
S'fair'
p264
sI263
S'recruit'
p265
sI264
S'radius'
p266
sI265
S'result'
p267
sI266
S'fail'
p268
sI267
S'hammer'
p269
sI268
S'best'
p270
sI269
S'pressured'
p271
sI270
S'lots'
p272
sI271
S'rings'
p273
sI272
S'stamps'
p274
sI273
S'magnesium'
p275
sI274
S'preserve'
p276
sI275
S'wage'
p277
sI276
S'men'
p278
sI277
S'extend'
p279
sI278
S'nature'
p280
sI279
S'rolled'
p281
sI280
S'smelled'
p282
sI281
S'souvenir'
p283
sI282
S'cut'
p284
sI283
S'extent'
p285
sI284
S'carbon'
p286
sI285
S'roller'
p287
sI286
S'accident'
p288
sI287
S'disdain'
p289
sI288
S'country'
p290
sI289
S'pits'
p291
sI290
S'heating'
p292
sI291
S'planned'
p293
sI292
S'normandy'
p294
sI293
S'logic'
p295
sI294
S'adapted'
p296
sI295
S'asked'
p297
sI296
S'pre'
p298
sI297
S'irresponsible'
p299
sI298
S'trickiest'
p300
sI299
S'pregnancy'
p301
sI300
S'blonde'
p302
sI301
S'airbus'
p303
sI302
S"aren't"
p304
sI303
S'source'
p305
sI304
S'union'
p306
sI305
S'bothers'
p307
sI306
S'much'
p308
sI307
S'fry'
p309
sI308
S'toning'
p310
sI309
S'life'
p311
sI310
S'yonkers'
p312
sI311
S'eastern'
p313
sI312
S'worker'
p314
sI313
S'lift'
p315
sI314
S'child'
p316
sI315
S'worked'
p317
sI316
S'spin'
p318
sI317
S'chill'
p319
sI318
S'commerce'
p320
sI319
S'employ'
p321
sI320
S'misconstrued'
p322
sI321
S'played'
p323
sI322
S'player'
p324
sI323
S'eighteen'
p325
sI324
S'upscale'
p326
sI325
S'campaigning'
p327
sI326
S'trusted'
p328
sI327
S'damaged'
p329
sI328
S'things'
p330
sI329
S'harmony'
p331
sI330
S'babies'
p332
sI331
S'principals'
p333
sI332
S'european'
p334
sI333
S'fairly'
p335
sI334
S'marches'
p336
sI335
S'waterborne'
p337
sI336
S'ownership'
p338
sI337
S'tuna'
p339
sI338
S'tune'
p340
sI339
S'intrusion'
p341
sI340
S'mentors'
p342
sI341
S'backhanded'
p343
sI342
S'corporate'
p344
sI343
S'opinions'
p345
sI344
S'outlived'
p346
sI345
S'sleeps'
p347
sI346
S'appropriately'
p348
sI347
S'distribute'
p349
sI348
S'sleepy'
p350
sI349
S'fantastic'
p351
sI350
S'financially'
p352
sI351
S'rushing'
p353
sI352
S'proofing'
p354
sI353
S'previous'
p355
sI354
S'replayed'
p356
sI355
S'ham'
p357
sI356
S'had'
p358
sI357
S'collections'
p359
sI358
S'innocent'
p360
sI359
S'prison'
p361
sI360
S'east'
p362
sI361
S'survival'
p363
sI362
S'possible'
p364
sI363
S'possibly'
p365
sI364
S'indicative'
p366
sI365
S'birth'
p367
sI366
S'shadow'
p368
sI367
S'unique'
p369
sI368
S'massively'
p370
sI369
S'psychological'
p371
sI370
S'vegan'
p372
sI371
S'remind'
p373
sI372
S'steps'
p374
sI373
S'battlefield'
p375
sI374
S'attorney'
p376
sI375
S'right'
p377
sI376
S'old'
p378
sI377
S'creek'
p379
sI378
S'crowd'
p380
sI379
S'people'
p381
sI380
S'commonplace'
p382
sI381
S'for'
p383
sI382
S'bottom'
p384
sI383
S'lockdown'
p385
sI384
S'fox'
p386
sI385
S'creative'
p387
sI386
S'individuals'
p388
sI387
S'treadmill'
p389
sI388
S'shaker'
p390
sI389
S'substitutes'
p391
sI390
S'dental'
p392
sI391
S'losing'
p393
sI392
S'benches'
p394
sI393
S'filipino'
p395
sI394
S'dollars'
p396
sI395
S'citizens'
p397
sI396
S'disqualified'
p398
sI397
S'slightly'
p399
sI398
S'match'
p400
sI399
S'raised'
p401
sI400
S'statements'
p402
sI401
S'maxwell'
p403
sI402
S'son'
p404
sI403
S'thankful'
p405
sI404
S'beings'
p406
sI405
S'raiser'
p407
sI406
S'marshals'
p408
sI407
S'soy'
p409
sI408
S'fabric'
p410
sI409
S'support'
p411
sI410
S'constantly'
p412
sI411
S'authorized'
p413
sI412
S'jane'
p414
sI413
S'overhead'
p415
sI414
S'happy'
p416
sI415
S'insurrection'
p417
sI416
S'offer'
p418
sI417
S'forming'
p419
sI418
S'melanie'
p420
sI419
S'congratulations'
p421
sI420
S"else's"
p422
sI421
S'inside'
p423
sI422
S'p._m.'
p424
sI423
S'devices'
p425
sI424
S'discarding'
p426
sI425
S'palm'
p427
sI426
S'passenger'
p428
sI427
S'proud'
p429
sI428
S'liberal'
p430
sI429
S'tournament'
p431
sI430
S'proven'
p432
sI431
S'crumble'
p433
sI432
S'exist'
p434
sI433
S'accounting'
p435
sI434
S'mrs'
p436
sI435
S'dealer'
p437
sI436
S'floor'
p438
sI437
S'actor'
p439
sI438
S'pasadena'
p440
sI439
S'role'
p441
sI440
S'smell'
p442
sI441
S'roll'
p443
sI442
S'greenery'
p444
sI443
S'intend'
p445
sI444
S'palms'
p446
sI445
S'models'
p447
sI446
S'muslims'
p448
sI447
S'invested'
p449
sI448
S'smelling'
p450
sI449
S'rolling'
p451
sI450
S'spades'
p452
sI451
S'time'
p453
sI452
S'push'
p454
sI453
S'disorganization'
p455
sI454
S'gown'
p456
sI455
S'irrigation'
p457
sI456
S'corps'
p458
sI457
S'whoever'
p459
sI458
S'shimmy'
p460
sI459
S'skiing'
p461
sI460
S'chair'
p462
sI461
S'impressive'
p463
sI462
S'bicycles'
p464
sI463
S'veterans'
p465
sI464
S'eliminate'
p466
sI465
S'icing'
p467
sI466
S'jerk'
p468
sI467
S'cheap'
p469
sI468
S'choice'
p470
sI469
S'alcoholics'
p471
sI470
S'stays'
p472
sI471
S'exact'
p473
sI472
S'minute'
p474
sI473
S'cooks'
p475
sI474
S'solves'
p476
sI475
S'tear'
p477
sI476
S'leave'
p478
sI477
S'solved'
p479
sI478
S'settle'
p480
sI479
S'subway'
p481
sI480
S'team'
p482
sI481
S'prevent'
p483
sI482
S'spiritual'
p484
sI483
S'occurrence'
p485
sI484
S'attic'
p486
sI485
S'steaks'
p487
sI486
S'chopping'
p488
sI487
S'depressions'
p489
sI488
S'educate'
p490
sI489
S'cleanliness'
p491
sI490
S'jeopardy'
p492
sI491
S'current'
p493
sI492
S'falling'
p494
sI493
S'ground'
p495
sI494
S'jury'
p496
sI495
S'grandparents'
p497
sI496
S'funeral'
p498
sI497
S'understanding'
p499
sI498
S'yards'
p500
sI499
S'address'
p501
sI500
S'alone'
p502
sI501
S'along'
p503
sI502
S'passengers'
p504
sI503
S'breathing'
p505
sI504
S'redemption'
p506
sI505
S'brilliant'
p507
sI506
S'studied'
p508
sI507
S'wherever'
p509
sI508
S'commonly'
p510
sI509
S'accomplished'
p511
sI510
S'studies'
p512
sI511
S'tasks'
p513
sI512
S'love'
p514
sI513
S'confidentiality'
p515
sI514
S'prefer'
p516
sI515
S'logical'
p517
sI516
S'fake'
p518
sI517
S'carol'
p519
sI518
S'crammed'
p520
sI519
S'working'
p521
sI520
S'perished'
p522
sI521
S'positive'
p523
sI522
S'angry'
p524
sI523
S'tightly'
p525
sI524
S'opposed'
p526
sI525
S'wondering'
p527
sI526
S'scope'
p528
sI527
S'theoretical'
p529
sI528
S'beginnings'
p530
sI529
S'loving'
p531
sI530
S'scratched'
p532
sI531
S'introducing'
p533
sI532
S'afford'
p534
sI533
S'oregon'
p535
sI534
S'visual'
p536
sI535
S'everywhere'
p537
sI536
S'virtue'
p538
sI537
S'scratches'
p539
sI538
S'easiest'
p540
sI539
S'tobacco'
p541
sI540
S'fourths'
p542
sI541
S'originally'
p543
sI542
S'pretend'
p544
sI543
S'abortion'
p545
sI544
S'inflamed'
p546
sI545
S'believes'
p547
sI546
S'phoebe'
p548
sI547
S'following'
p549
sI548
S'sheeting'
p550
sI549
S'admired'
p551
sI550
S'frogs'
p552
sI551
S'awesome'
p553
sI552
S'teaspoons'
p554
sI553
S'locks'
p555
sI554
S'graduation'
p556
sI555
S'allowed'
p557
sI556
S'stole'
p558
sI557
S'winter'
p559
sI558
S'buttered'
p560
sI559
S'divided'
p561
sI560
S'poking'
p562
sI561
S's.'
p563
sI562
S'elephant'
p564
sI563
S'extensions'
p565
sI564
S'snaps'
p566
sI565
S'laundry'
p567
sI566
S'explorer'
p568
sI567
S'spot'
p569
sI568
S'date'
p570
sI569
S'such'
p571
sI570
S'suck'
p572
sI571
S'filthy'
p573
sI572
S'temperate'
p574
sI573
S'stress'
p575
sI574
S'surfing'
p576
sI575
S'natural'
p577
sI576
S'varieties'
p578
sI577
S'conscious'
p579
sI578
S'wheelchair'
p580
sI579
S'st'
p581
sI580
S'so'
p582
sI581
S'pulled'
p583
sI582
S'se'
p584
sI583
S'unacceptable'
p585
sI584
S'years'
p586
sI585
S'hiring'
p587
sI586
S'experiments'
p588
sI587
S'razors'
p589
sI588
S'bulldoze'
p590
sI589
S'tendency'
p591
sI590
S'disconnect'
p592
sI591
S'thumb'
p593
sI592
S'accordion'
p594
sI593
S'jim'
p595
sI594
S'troubles'
p596
sI595
S'stroll'
p597
sI596
S'modestly'
p598
sI597
S'matches'
p599
sI598
S'smarter'
p600
sI599
S'insomnia'
p601
sI600
S'nation'
p602
sI601
S'records'
p603
sI602
S'corroded'
p604
sI603
S'maintaining'
p605
sI604
S'matched'
p606
sI605
S'frontage'
p607
sI606
S'enrichment'
p608
sI607
S'revert'
p609
sI608
S'jellyfish'
p610
sI609
S'bowling'
p611
sI610
S'quarter'
p612
sI611
S'repaired'
p613
sI612
S'crocks'
p614
sI613
S'turtle'
p615
sI614
S'square'
p616
sI615
S'sexually'
p617
sI616
S'salads'
p618
sI617
S'sniffly'
p619
sI618
S'container'
p620
sI619
S'abide'
p621
sI620
S'seriously'
p622
sI621
S'investigation'
p623
sI622
S'internet'
p624
sI623
S'suggesting'
p625
sI624
S'squares'
p626
sI625
S'linguine'
p627
sI626
S'million'
p628
sI627
S'inhaled'
p629
sI628
S'possibility'
p630
sI629
S'quite'
p631
sI630
S'recordings'
p632
sI631
S'complicated'
p633
sI632
S'besides'
p634
sI633
S'grandma'
p635
sI634
S'bumpy'
p636
sI635
S'homeopathic'
p637
sI636
S'seventy'
p638
sI637
S'training'
p639
sI638
S'backside'
p640
sI639
S'chevy'
p641
sI640
S"country's"
p642
sI641
S'massive'
p643
sI642
S'neglect'
p644
sI643
S'emotion'
p645
sI644
S'saving'
p646
sI645
S"brian's"
p647
sI646
S'one'
p648
sI647
S'spanish'
p649
sI648
S'vote'
p650
sI649
S'open'
p651
sI650
S'city'
p652
sI651
S'boulevard'
p653
sI652
S'bite'
p654
sI653
S'structured'
p655
sI654
S'indicate'
p656
sI655
S'h._d.'
p657
sI656
S'twenties'
p658
sI657
S'draft'
p659
sI658
S'stuffed'
p660
sI659
S'typing'
p661
sI660
S'structures'
p662
sI661
S'williams'
p663
sI662
S'snatch'
p664
sI663
S'ridiculous'
p665
sI664
S'specialists'
p666
sI665
S'boyfriend'
p667
sI666
S'depressed'
p668
sI667
S'coats'
p669
sI668
S'future'
p670
sI669
S'glossy'
p671
sI670
S'counselor'
p672
sI671
S'russia'
p673
sI672
S'illness'
p674
sI673
S'san'
p675
sI674
S'sam'
p676
sI675
S'turned'
p677
sI676
S'afternoons'
p678
sI677
S'sad'
p679
sI678
S'say'
p680
sI679
S'saw'
p681
sI680
S'sat'
p682
sI681
S'butters'
p683
sI682
S'baggage'
p684
sI683
S'warriors'
p685
sI684
S'aside'
p686
sI685
S'zoo'
p687
sI686
S'note'
p688
sI687
S'checkerboard'
p689
sI688
S'take'
p690
sI689
S'wanting'
p691
sI690
S'insuring'
p692
sI691
S'towers'
p693
sI692
S'altered'
p694
sI693
S'opposite'
p695
sI694
S'syllable'
p696
sI695
S'knew'
p697
sI696
S'compress'
p698
sI697
S'buffet'
p699
sI698
S'knee'
p700
sI699
S'pages'
p701
sI700
S'lawn'
p702
sI701
S'energize'
p703
sI702
S'average'
p704
sI703
S'infections'
p705
sI704
S'drive'
p706
sI705
S'ways'
p707
sI706
S'salt'
p708
sI707
S'laws'
p709
sI708
S'walking'
p710
sI709
S'grilling'
p711
sI710
S'bright'
p712
sI711
S'aggressive'
p713
sI712
S'slot'
p714
sI713
S'fibre'
p715
sI714
S'slow'
p716
sI715
S'going'
p717
sI716
S'hockey'
p718
sI717
S'outrage'
p719
sI718
S'carolina'
p720
sI719
S'digitize'
p721
sI720
S'assistant'
p722
sI721
S'freezing'
p723
sI722
S'outlet'
p724
sI723
S'prime'
p725
sI724
S'resource'
p726
sI725
S'artist'
p727
sI726
S'hinges'
p728
sI727
S'saliva'
p729
sI728
S'borrow'
p730
sI729
S'worried'
p731
sI730
S'roger'
p732
sI731
S"could've"
p733
sI732
S'landlord'
p734
sI733
S'worries'
p735
sI734
S'where'
p736
sI735
S'vision'
p737
sI736
S'keyboard'
p738
sI737
S'anyways'
p739
sI738
S'surgery'
p740
sI739
S'diagonally'
p741
sI740
S'jumped'
p742
sI741
S'sites'
p743
sI742
S'teeny'
p744
sI743
S'bureau'
p745
sI744
S'sable'
p746
sI745
S'enjoys'
p747
sI746
S'jobs'
p748
sI747
S'vertical'
p749
sI748
S'screen'
p750
sI749
S'dome'
p751
sI750
S'concentrate'
p752
sI751
S'spare'
p753
sI752
S'jets'
p754
sI753
S'concentrated'
p755
sI754
S'many'
p756
sI755
S'millionaire'
p757
sI756
S's'
sI757
S'residency'
p758
sI758
S'semitic'
p759
sI759
S'expression'
p760
sI760
S"can't"
p761
sI761
S'allowance'
p762
sI762
S'twin'
p763
sI763
S'anti'
p764
sI764
S'moans'
p765
sI765
S'boar'
p766
sI766
S'extinct'
p767
sI767
S'boat'
p768
sI768
S'math'
p769
sI769
S'caring'
p770
sI770
S'combines'
p771
sI771
S'companionship'
p772
sI772
S'stretch'
p773
sI773
S'west'
p774
sI774
S'artistic'
p775
sI775
S'vacation'
p776
sI776
S'breath'
p777
sI777
S'incubation'
p778
sI778
S'combined'
p779
sI779
S'reflective'
p780
sI780
S'wants'
p781
sI781
S'lanes'
p782
sI782
S'thousand'
p783
sI783
S'igloo'
p784
sI784
S'observe'
p785
sI785
S'former'
p786
sI786
S'non-issue'
p787
sI787
S'polls'
p788
sI788
S'single'
p789
sI789
S'canoes'
p790
sI790
S'policies'
p791
sI791
S'newspaper'
p792
sI792
S'situation'
p793
sI793
S'pleasurable'
p794
sI794
S'aluminium'
p795
sI795
S'canoe'
p796
sI796
S'twists'
p797
sI797
S'engaged'
p798
sI798
S'blah'
p799
sI799
S'limping'
p800
sI800
S'blab'
p801
sI801
S'technology'
p802
sI802
S'fame'
p803
sI803
S'rooting'
p804
sI804
S'wiring'
p805
sI805
S'homophobic'
p806
sI806
S'visually'
p807
sI807
S'wires'
p808
sI808
S'edges'
p809
sI809
S'advertisement'
p810
sI810
S'unmanageable'
p811
sI811
S'devolved'
p812
sI812
S'tracking'
p813
sI813
S'costs'
p814
sI814
S'trains'
p815
sI815
S'genie'
p816
sI816
S'summer'
p817
sI817
S'sprayed'
p818
sI818
S'steamed'
p819
sI819
S'being'
p820
sI820
S'rest'
p821
sI821
S'interrupt'
p822
sI822
S'steamer'
p823
sI823
S'underline'
p824
sI824
S'downright'
p825
sI825
S'deceiving'
p826
sI826
S'grounded'
p827
sI827
S'bricks'
p828
sI828
S'coded'
p829
sI829
S'joyful'
p830
sI830
S'aspects'
p831
sI831
S'around'
p832
sI832
S'dark'
p833
sI833
S'traffic'
p834
sI834
S'darn'
p835
sI835
S'world'
p836
sI836
S'intel'
p837
sI837
S'stranger'
p838
sI838
S'clay'
p839
sI839
S'kennel'
p840
sI840
S'satisfactory'
p841
sI841
S"couldn't"
p842
sI842
S'replays'
p843
sI843
S'diving'
p844
sI844
S'thinks'
p845
sI845
S"there'll"
p846
sI846
S'substance'
p847
sI847
S'memories'
p848
sI848
S'ability'
p849
sI849
S'scientific'
p850
sI850
S'power'
p851
sI851
S'industrialized'
p852
sI852
S'ration'
p853
sI853
S'leadership'
p854
sI854
S'standpoint'
p855
sI855
S'thailand'
p856
sI856
S'stone'
p857
sI857
S'origins'
p858
sI858
S'package'
p859
sI859
S'industry'
p860
sI860
S'favorite'
p861
sI861
S'meal'
p862
sI862
S'act'
p863
sI863
S'bond'
p864
sI864
S'burning'
p865
sI865
S'headsets'
p866
sI866
S'image'
p867
sI867
S'accumulates'
p868
sI868
S'homeless'
p869
sI869
S'parties'
p870
sI870
S'technically'
p871
sI871
S'burglar'
p872
sI872
S"how's"
p873
sI873
S'her'
p874
sI874
S'lacquered'
p875
sI875
S'philadelphia'
p876
sI876
S'sides'
p877
sI877
S"how'd"
p878
sI878
S'sealed'
p879
sI879
S'bubble'
p880
sI880
S'complete'
p881
sI881
S"child's"
p882
sI882
S'gliding'
p883
sI883
S'technologies'
p884
sI884
S'with'
p885
sI885
S'buying'
p886
sI886
S'abused'
p887
sI887
S"they're"
p888
sI888
S'rush'
p889
sI889
S'october'
p890
sI890
S'rescuing'
p891
sI891
S'monopoly'
p892
sI892
S'flirt'
p893
sI893
S'dirty'
p894
sI894
S'politically'
p895
sI895
S'torso'
p896
sI896
S'agree'
p897
sI897
S'misery'
p898
sI898
S'gone'
p899
sI899
S'ad'
p900
sI900
S'johnny'
p901
sI901
S'exhausted'
p902
sI902
S'ah'
p903
sI903
S'stealing'
p904
sI904
S'am'
p905
sI905
S'al'
p906
sI906
S'watches'
p907
sI907
S'an'
p908
sI908
S'as'
p909
sI909
S'hypertension'
p910
sI910
S'at'
p911
sI911
S'walks'
p912
sI912
S'watched'
p913
sI913
S'cream'
p914
sI914
S'angelica'
p915
sI915
S'beaming'
p916
sI916
S'ideally'
p917
sI917
S'novice'
p918
sI918
S'tight'
p919
sI919
S'congress'
p920
sI920
S'forgot'
p921
sI921
S'sounding'
p922
sI922
S'gifts'
p923
sI923
S'terry'
p924
sI924
S'tricky'
p925
sI925
S'tricks'
p926
sI926
S'mask'
p927
sI927
S'having'
p928
sI928
S'raphael'
p929
sI929
S'mass'
p930
sI930
S'adam'
p931
sI931
S'remarkable'
p932
sI932
S'original'
p933
sI933
S'consider'
p934
sI934
S'caused'
p935
sI935
S'welfare'
p936
sI936
S'reasoning'
p937
sI937
S'causes'
p938
sI938
S'careful'
p939
sI939
S'u._c._l._a.'
p940
sI940
S'vikings'
p941
sI941
S'tv'
p942
sI942
S'squats'
p943
sI943
S'including'
p944
sI944
S'champions'
p945
sI945
S'to'
p946
sI946
S'tail'
p947
sI947
S'dressing'
p948
sI948
S'smile'
p949
sI949
S'case'
p950
sI950
S'reader'
p951
sI951
S'baton'
p952
sI952
S'manageable'
p953
sI953
S'condition'
p954
sI954
S'highways'
p955
sI955
S'cable'
p956
sI956
S'o._c.'
p957
sI957
S'laying'
p958
sI958
S'joined'
p959
sI959
S't.'
p960
sI960
S'dinosaur'
p961
sI961
S'sand'
p962
sI962
S'swirling'
p963
sI963
S'harry'
p964
sI964
S'small'
p965
sI965
S'humongous'
p966
sI966
S'quicker'
p967
sI967
S'penalties'
p968
sI968
S'past'
p969
sI969
S'pass'
p970
sI970
S'c._b._s.'
p971
sI971
S'clock'
p972
sI972
S'section'
p973
sI973
S'nurse'
p974
sI974
S'luxuries'
p975
sI975
S'method'
p976
sI976
S'full'
p977
sI977
S'sarasota'
p978
sI978
S'replaceable'
p979
sI979
S'diapers'
p980
sI980
S'hours'
p981
sI981
S'civilians'
p982
sI982
S'november'
p983
sI983
S'introductory'
p984
sI984
S'experience'
p985
sI985
S'prior'
p986
sI986
S'healthier'
p987
sI987
S'hamster'
p988
sI988
S'social'
p989
sI989
S'action'
p990
sI990
S"would've"
p991
sI991
S'luck'
p992
sI992
S'sweetness'
p993
sI993
S"day's"
p994
sI994
S'via'
p995
sI995
S'followed'
p996
sI996
S'indoors'
p997
sI997
S'pulls'
p998
sI998
S'gosh'
p999
sI999
S'select'
p1000
sI1000
S'poodle'
p1001
sI1001
S'6'
sI1002
S'more'
p1002
sI1003
S'teen'
p1003
sI1004
S"dog's"
p1004
sI1005
S'door'
p1005
sI1006
S'company'
p1006
sI1007
S'spoils'
p1007
sI1008
S'tested'
p1008
sI1009
S'sizing'
p1009
sI1010
S'keeping'
p1010
sI1011
S'c._n._n.'
p1011
sI1012
S'science'
p1012
sI1013
S'installing'
p1013
sI1014
S'mall'
p1014
sI1015
S'sent'
p1015
sI1016
S'evolved'
p1016
sI1017
S'learn'
p1017
sI1018
S'knocked'
p1018
sI1019
S'male'
p1019
sI1020
S"power's"
p1020
sI1021
S'beautiful'
p1021
sI1022
S'stated'
p1022
sI1023
S'campsite'
p1023
sI1024
S'suggestions'
p1024
sI1025
S'accept'
p1025
sI1026
S'states'
p1026
sI1027
S'sense'
p1027
sI1028
S'gallon'
p1028
sI1029
S'disliked'
p1029
sI1030
S'dress'
p1030
sI1031
S'huge'
p1031
sI1032
S'hugs'
p1032
sI1033
S'unattended'
p1033
sI1034
S'plant'
p1034
sI1035
S'intended'
p1035
sI1036
S'plane'
p1036
sI1037
S'conveniences'
p1037
sI1038
S'waves'
p1038
sI1039
S'backyard'
p1039
sI1040
S'c._e._o.'
p1040
sI1041
S'twisting'
p1041
sI1042
S'fundamental'
p1042
sI1043
S'radios'
p1043
sI1044
S'locking'
p1044
sI1045
S'televise'
p1045
sI1046
S'installed'
p1046
sI1047
S'attitude'
p1047
sI1048
S'paper'
p1048
sI1049
S'scott'
p1049
sI1050
S'signs'
p1050
sI1051
S'smiling'
p1051
sI1052
S'its'
p1052
sI1053
S'roots'
p1053
sI1054
S'rapidly'
p1054
sI1055
S'mistreated'
p1055
sI1056
S'minerals'
p1056
sI1057
S'symptoms'
p1057
sI1058
S'ruining'
p1058
sI1059
S'bummer'
p1059
sI1060
S'travelling'
p1060
sI1061
S'sauce'
p1061
sI1062
S'severely'
p1062
sI1063
S'olivia'
p1063
sI1064
S'everytime'
p1064
sI1065
S'coping'
p1065
sI1066
S'always'
p1066
sI1067
S'nauseous'
p1067
sI1068
S'courses'
p1068
sI1069
S'found'
p1069
sI1070
S'status'
p1070
sI1071
S'england'
p1071
sI1072
S'upstairs'
p1072
sI1073
S'reduce'
p1073
sI1074
S'police'
p1074
sI1075
S'measurement'
p1075
sI1076
S'operation'
p1076
sI1077
S'really'
p1077
sI1078
S'psychology'
p1078
sI1079
S'research'
p1079
sI1080
S'misses'
p1080
sI1081
S'highway'
p1081
sI1082
S'uh-huh'
p1082
sI1083
S'steering'
p1083
sI1084
S'barges'
p1084
sI1085
S'conditioning'
p1085
sI1086
S'imagine'
p1086
sI1087
S'bumped'
p1087
sI1088
S'owners'
p1088
sI1089
S"woman's"
p1089
sI1090
S'castle'
p1090
sI1091
S'major'
p1091
sI1092
S'rooted'
p1092
sI1093
S'u._k.'
p1093
sI1094
S'number'
p1094
sI1095
S'housewares'
p1095
sI1096
S'kobe'
p1096
sI1097
S'differ'
p1097
sI1098
S'heads'
p1098
sI1099
S'guest'
p1099
sI1100
S'introduction'
p1100
sI1101
S'saint'
p1101
sI1102
S'syllables'
p1102
sI1103
S'relationship'
p1103
sI1104
S'fasting'
p1104
sI1105
S'interviewed'
p1105
sI1106
S'appreciation'
p1106
sI1107
S'consult'
p1107
sI1108
S'focusing'
p1108
sI1109
S'stairs'
p1109
sI1110
S'grace'
p1110
sI1111
S'vocal'
p1111
sI1112
S'minimize'
p1112
sI1113
S'determined'
p1113
sI1114
S'marriage'
p1114
sI1115
S'beneficial'
p1115
sI1116
S'fishermen'
p1116
sI1117
S'remembers'
p1117
sI1118
S'basically'
p1118
sI1119
S'fights'
p1119
sI1120
S'beforehand'
p1120
sI1121
S'guarding'
p1121
sI1122
S'graffiti'
p1122
sI1123
S'sell'
p1123
sI1124
S'ballerina'
p1124
sI1125
S'shrivel'
p1125
sI1126
S'spaghetti'
p1126
sI1127
S'self'
p1127
sI1128
S'also'
p1128
sI1129
S'internal'
p1129
sI1130
S'play'
p1130
sI1131
S'singles'
p1131
sI1132
S'virus'
p1132
sI1133
S'plan'
p1133
sI1134
S'accepting'
p1134
sI1135
S'funnier'
p1135
sI1136
S'singled'
p1136
sI1137
S'pliable'
p1137
sI1138
S'sometimes'
p1138
sI1139
S'cover'
p1139
sI1140
S'bodies'
p1140
sI1141
S'barrel'
p1141
sI1142
S'attacking'
p1142
sI1143
S'golf'
p1143
sI1144
S'gold'
p1144
sI1145
S'blended'
p1145
sI1146
S'defended'
p1146
sI1147
S'session'
p1147
sI1148
S'parochial'
p1148
sI1149
S'friable'
p1149
sI1150
S'impact'
p1150
sI1151
S'wraps'
p1151
sI1152
S'writes'
p1152
sI1153
S'writer'
p1153
sI1154
S'reels'
p1154
sI1155
S'failed'
p1155
sI1156
S'wayne'
p1156
sI1157
S'factor'
p1157
sI1158
S'columns'
p1158
sI1159
S'giants'
p1159
sI1160
S'distance'
p1160
sI1161
S'banned'
p1161
sI1162
S'sunny'
p1162
sI1163
S"they'd"
p1163
sI1164
S'frightening'
p1164
sI1165
S'distraction'
p1165
sI1166
S'enemy'
p1166
sI1167
S'sleeve'
p1167
sI1168
S'paddling'
p1168
sI1169
S'tabby'
p1169
sI1170
S'banking'
p1170
sI1171
S'cease'
p1171
sI1172
S'river'
p1172
sI1173
S'approaching'
p1173
sI1174
S'sew'
p1174
sI1175
S'set'
p1175
sI1176
S'nibble'
p1176
sI1177
S'sex'
p1177
sI1178
S'see'
p1178
sI1179
S'outward'
p1179
sI1180
S'project'
p1180
sI1181
S'baritone'
p1181
sI1182
S'vitamins'
p1182
sI1183
S'movie'
p1183
sI1184
S'currently'
p1184
sI1185
S'demons'
p1185
sI1186
S'nope'
p1186
sI1187
S'monsters'
p1187
sI1188
S'rita'
p1188
sI1189
S'knowing'
p1189
sI1190
S'hardship'
p1190
sI1191
S'incident'
p1191
sI1192
S'leo'
p1192
sI1193
S'last'
p1193
sI1194
S'influential'
p1194
sI1195
S'barely'
p1195
sI1196
S'connection'
p1196
sI1197
S'retarded'
p1197
sI1198
S'approve'
p1198
sI1199
S'patty'
p1199
sI1200
S'drunk'
p1200
sI1201
S'loan'
p1201
sI1202
S'smashing'
p1202
sI1203
S'community'
p1203
sI1204
S'hollow'
p1204
sI1205
S'church'
p1205
sI1206
S'sammy'
p1206
sI1207
S'belt'
p1207
sI1208
S'souffle'
p1208
sI1209
S'filth'
p1209
sI1210
S'publishing'
p1210
sI1211
S'monthly'
p1211
sI1212
S'acceptance'
p1212
sI1213
S'hitting'
p1213
sI1214
S'firm'
p1214
sI1215
S'fire'
p1215
sI1216
S"what's"
p1216
sI1217
S'engage'
p1217
sI1218
S'awake'
p1218
sI1219
S'representative'
p1219
sI1220
S'towns'
p1220
sI1221
S"what'd"
p1221
sI1222
S'handling'
p1222
sI1223
S'hostess'
p1223
sI1224
S'straight'
p1224
sI1225
S'expanded'
p1225
sI1226
S'budget'
p1226
sI1227
S'medically'
p1227
sI1228
S'pressed'
p1228
sI1229
S'error'
p1229
sI1230
S'robin'
p1230
sI1231
S'cages'
p1231
sI1232
S'swim'
p1232
sI1233
S'pound'
p1233
sI1234
S'hoping'
p1234
sI1235
S'hyperactivity'
p1235
sI1236
S'motors'
p1236
sI1237
S'ducks'
p1237
sI1238
S'vow'
p1238
sI1239
S'triple'
p1239
sI1240
S'beautifully'
p1240
sI1241
S'chase'
p1241
sI1242
S'cuisine'
p1242
sI1243
S'barney'
p1243
sI1244
S'choking'
p1244
sI1245
S'fibers'
p1245
sI1246
S'shorten'
p1246
sI1247
S'shorter'
p1247
sI1248
S'rules'
p1248
sI1249
S'flooded'
p1249
sI1250
S'comprehensive'
p1250
sI1251
S'derby'
p1251
sI1252
S'upbringing'
p1252
sI1253
S'virginia'
p1253
sI1254
S'levels'
p1254
sI1255
S'necessity'
p1255
sI1256
S'stack'
p1256
sI1257
S'focal'
p1257
sI1258
S'recent'
p1258
sI1259
S'canned'
p1259
sI1260
S'picks'
p1260
sI1261
S'person'
p1261
sI1262
S'feces'
p1262
sI1263
S'crayfish'
p1263
sI1264
S'readers'
p1264
sI1265
S'advertisements'
p1265
sI1266
S'eager'
p1266
sI1267
S'parents'
p1267
sI1268
S'location'
p1268
sI1269
S'crying'
p1269
sI1270
S'input'
p1270
sI1271
S'submissions'
p1271
sI1272
S'surprised'
p1272
sI1273
S'australia'
p1273
sI1274
S'victims'
p1274
sI1275
S'emergency'
p1275
sI1276
S'format'
p1276
sI1277
S'couple'
p1277
sI1278
S'suffering'
p1278
sI1279
S'projects'
p1279
sI1280
S'formal'
p1280
sI1281
S'communications'
p1281
sI1282
S'continue'
p1282
sI1283
S'disorder'
p1283
sI1284
S'partying'
p1284
sI1285
S'methods'
p1285
sI1286
S'spring'
p1286
sI1287
S'b.'
p1287
sI1288
S'mighty'
p1288
sI1289
S'curious'
p1289
sI1290
S'sprint'
p1290
sI1291
S'transactions'
p1291
sI1292
S'religion'
p1292
sI1293
S'dating'
p1293
sI1294
S"son's"
p1294
sI1295
S'be'
p1295
sI1296
S'a._t._m.s'
p1296
sI1297
S"mommy's"
p1297
sI1298
S'agreement'
p1298
sI1299
S'nowhere'
p1299
sI1300
S'santa'
p1300
sI1301
S'relating'
p1301
sI1302
S'by'
p1302
sI1303
S'anything'
p1303
sI1304
S'fouls'
p1304
sI1305
S'forearms'
p1305
sI1306
S'repair'
p1306
sI1307
S'clinton'
p1307
sI1308
S'colorado'
p1308
sI1309
S'garbage'
p1309
sI1310
S'terrorists'
p1310
sI1311
S'hometown'
p1311
sI1312
S'into'
p1312
sI1313
S'osama'
p1313
sI1314
S'appropriate'
p1314
sI1315
S'primarily'
p1315
sI1316
S'katie'
p1316
sI1317
S'interactivity'
p1317
sI1318
S'span'
p1318
sI1319
S'tasting'
p1319
sI1320
S'spending'
p1320
sI1321
S'specifically'
p1321
sI1322
S'custom'
p1322
sI1323
S'occupy'
p1323
sI1324
S'u.'
p1324
sI1325
S'bridesmaids'
p1325
sI1326
S'suit'
p1326
sI1327
S'athlete'
p1327
sI1328
S'jacks'
p1328
sI1329
S'inches'
p1329
sI1330
S'jewish'
p1330
sI1331
S'relaxed'
p1331
sI1332
S'lint'
p1332
sI1333
S'archaic'
p1333
sI1334
S'atlantic'
p1334
sI1335
S'line'
p1335
sI1336
S'considerable'
p1336
sI1337
S'posted'
p1337
sI1338
S'nieces'
p1338
sI1339
S'up'
p1339
sI1340
S'us'
p1340
sI1341
S'um'
p1341
sI1342
S'maturity'
p1342
sI1343
S'uh'
p1343
sI1344
S'mature'
p1344
sI1345
S'consumed'
p1345
sI1346
S'supervisor'
p1346
sI1347
S'reconcile'
p1347
sI1348
S'defined'
p1348
sI1349
S'influence'
p1349
sI1350
S'diverse'
p1350
sI1351
S'palisades'
p1351
sI1352
S'chat'
p1352
sI1353
S'fixing'
p1353
sI1354
S'scrape'
p1354
sI1355
S'points'
p1355
sI1356
S'actors'
p1356
sI1357
S'elements'
p1357
sI1358
S'scrub'
p1358
sI1359
S'energetic'
p1359
sI1360
S'rabies'
p1360
sI1361
S'provided'
p1361
sI1362
S'sided'
p1362
sI1363
S'robots'
p1363
sI1364
S'meals'
p1364
sI1365
S'overstay'
p1365
sI1366
S'ago'
p1366
sI1367
S'furthest'
p1367
sI1368
S'land'
p1368
sI1369
S'fighter'
p1369
sI1370
S'mailing'
p1370
sI1371
S'age'
p1371
sI1372
S'holes'
p1372
sI1373
S'walked'
p1373
sI1374
S'opposing'
p1374
sI1375
S'walker'
p1375
sI1376
S'fresh'
p1376
sI1377
S"stuff's"
p1377
sI1378
S'hello'
p1378
sI1379
S'code'
p1379
sI1380
S'incorporate'
p1380
sI1381
S'scratch'
p1381
sI1382
S'knotted'
p1382
sI1383
S'results'
p1383
sI1384
S'existing'
p1384
sI1385
S'enjoyable'
p1385
sI1386
S'toggle'
p1386
sI1387
S'softer'
p1387
sI1388
S'legal'
p1388
sI1389
S'gossip'
p1389
sI1390
S'centers'
p1390
sI1391
S'seemed'
p1391
sI1392
S'unforgiving'
p1392
sI1393
S'concerned'
p1393
sI1394
S'young'
p1394
sI1395
S'send'
p1395
sI1396
S'resources'
p1396
sI1397
S'garden'
p1397
sI1398
S'continues'
p1398
sI1399
S'manipulated'
p1399
sI1400
S'stocker'
p1400
sI1401
S'llama'
p1401
sI1402
S'mixing'
p1402
sI1403
S'animals'
p1403
sI1404
S'decorating'
p1404
sI1405
S'wipe'
p1405
sI1406
S'magic'
p1406
sI1407
S'marry'
p1407
sI1408
S'eve'
p1408
sI1409
S'fewer'
p1409
sI1410
S'try'
p1410
sI1411
S'huh-uh'
p1411
sI1412
S'race'
p1412
sI1413
S'obesity'
p1413
sI1414
S'rack'
p1414
sI1415
S'seventies'
p1415
sI1416
S'mediterranean'
p1416
sI1417
S'video'
p1417
sI1418
S'enclosed'
p1418
sI1419
S'licenses'
p1419
sI1420
S'dynamics'
p1420
sI1421
S'a._t._m.'
p1421
sI1422
S'multimedia'
p1422
sI1423
S'sweaty'
p1423
sI1424
S'indian'
p1424
sI1425
S'flowing'
p1425
sI1426
S'bird'
p1426
sI1427
S'leg'
p1427
sI1428
S'gathered'
p1428
sI1429
S"simon's"
p1429
sI1430
S'punch'
p1430
sI1431
S'delivering'
p1431
sI1432
S'let'
p1432
sI1433
S'euro'
p1433
sI1434
S'aerodynamic'
p1434
sI1435
S'invented'
p1435
sI1436
S'fifteen'
p1436
sI1437
S'crocker'
p1437
sI1438
S'great'
p1438
sI1439
S'casing'
p1439
sI1440
S'receive'
p1440
sI1441
S'involved'
p1441
sI1442
S'mosquito'
p1442
sI1443
S'survey'
p1443
sI1444
S'insulin'
p1444
sI1445
S'defeat'
p1445
sI1446
S'popcorn'
p1446
sI1447
S'opinion'
p1447
sI1448
S'residents'
p1448
sI1449
S'makes'
p1449
sI1450
S'involves'
p1450
sI1451
S'assemble'
p1451
sI1452
S'tools'
p1452
sI1453
S'standing'
p1453
sI1454
S'confidence'
p1454
sI1455
S'illegal'
p1455
sI1456
S'whipping'
p1456
sI1457
S'theme'
p1457
sI1458
S'next'
p1458
sI1459
S'eleven'
p1459
sI1460
S'doubt'
p1460
sI1461
S'billboards'
p1461
sI1462
S'pencil'
p1462
sI1463
S'occurred'
p1463
sI1464
S'unplug'
p1464
sI1465
S'carrying'
p1465
sI1466
S'baby'
p1466
sI1467
S'pieces'
p1467
sI1468
S'casserole'
p1468
sI1469
S'charity'
p1469
sI1470
S'customer'
p1470
sI1471
S'balls'
p1471
sI1472
S'practicing'
p1472
sI1473
S'this'
p1473
sI1474
S'challenge'
p1474
sI1475
S'clients'
p1475
sI1476
S'pour'
p1476
sI1477
S'thin'
p1477
sI1478
S'bent'
p1478
sI1479
S'process'
p1479
sI1480
S'lock'
p1480
sI1481
S'coolness'
p1481
sI1482
S'purposes'
p1482
sI1483
S"they've"
p1483
sI1484
S'high'
p1484
sI1485
S'bend'
p1485
sI1486
S'slip'
p1486
sI1487
S'chop'
p1487
sI1488
S'pair'
p1488
sI1489
S'animal'
p1489
sI1490
S'mysteries'
p1490
sI1491
S'intelligent'
p1491
sI1492
S'blocks'
p1492
sI1493
S'tied'
p1493
sI1494
S'pigs'
p1494
sI1495
S'graveyards'
p1495
sI1496
S'demonstrating'
p1496
sI1497
S'fits'
p1497
sI1498
S'ties'
p1498
sI1499
S'cabbage'
p1499
sI1500
S'coast'
p1500
sI1501
S'upstate'
p1501
sI1502
S'efficiently'
p1502
sI1503
S'tomato'
p1503
sI1504
S'democracy'
p1504
sI1505
S'counter'
p1505
sI1506
S'robot'
p1506
sI1507
S'element'
p1507
sI1508
S'allow'
p1508
sI1509
S'volunteers'
p1509
sI1510
S'counted'
p1510
sI1511
S'houston'
p1511
sI1512
S'evolutionary'
p1512
sI1513
S'produces'
p1513
sI1514
S'd._j.'
p1514
sI1515
S'vaccinated'
p1515
sI1516
S'move'
p1516
sI1517
S'doubtful'
p1517
sI1518
S'produced'
p1518
sI1519
S'artichoke'
p1519
sI1520
S"wife's"
p1520
sI1521
S'perfect'
p1521
sI1522
S'chosen'
p1522
sI1523
S'dispose'
p1523
sI1524
S'meantime'
p1524
sI1525
S'tyrone'
p1525
sI1526
S'degrees'
p1526
sI1527
S'hobby'
p1527
sI1528
S'forest'
p1528
sI1529
S'ship'
p1529
sI1530
S'harrisburg'
p1530
sI1531
S'snake'
p1531
sI1532
S'kiss'
p1532
sI1533
S'rotation'
p1533
sI1534
S'cage'
p1534
sI1535
S'realize'
p1535
sI1536
S'betty'
p1536
sI1537
S'truth'
p1537
sI1538
S'accounts'
p1538
sI1539
S'beneath'
p1539
sI1540
S'glasses'
p1540
sI1541
S'overextended'
p1541
sI1542
S'tents'
p1542
sI1543
S'vowel'
p1543
sI1544
S'society'
p1544
sI1545
S'books'
p1545
sI1546
S'thirteen'
p1546
sI1547
S'goalkeeper'
p1547
sI1548
S'witness'
p1548
sI1549
S'valve'
p1549
sI1550
S'venom'
p1550
sI1551
S'shut'
p1551
sI1552
S'inhaling'
p1552
sI1553
S'surely'
p1553
sI1554
S'craving'
p1554
sI1555
S'scary'
p1555
sI1556
S'bam'
p1556
sI1557
S'latches'
p1557
sI1558
S'could'
p1558
sI1559
S'david'
p1559
sI1560
S'hindus'
p1560
sI1561
S'length'
p1561
sI1562
S'pudding'
p1562
sI1563
S'assumed'
p1563
sI1564
S'hussein'
p1564
sI1565
S'scare'
p1565
sI1566
S'transmitters'
p1566
sI1567
S'blown'
p1567
sI1568
S'yells'
p1568
sI1569
S'scene'
p1569
sI1570
S'owned'
p1570
sI1571
S'jesus'
p1571
sI1572
S'tier'
p1572
sI1573
S'owner'
p1573
sI1574
S'sharon'
p1574
sI1575
S'los'
p1575
sI1576
S'festival'
p1576
sI1577
S'system'
p1577
sI1578
S'travelled'
p1578
sI1579
S'painful'
p1579
sI1580
S'interests'
p1580
sI1581
S'enforcement'
p1581
sI1582
S'stomach'
p1582
sI1583
S'stars'
p1583
sI1584
S'shorts'
p1584
sI1585
S'adaptor'
p1585
sI1586
S'gotcha'
p1586
sI1587
S'grandpa'
p1587
sI1588
S'elite'
p1588
sI1589
S'warfare'
p1589
sI1590
S'wet'
p1590
sI1591
S'bother'
p1591
sI1592
S'listeners'
p1592
sI1593
S'steep'
p1593
sI1594
S'collecting'
p1594
sI1595
S'false'
p1595
sI1596
S'gently'
p1596
sI1597
S'tonight'
p1597
sI1598
S'gentle'
p1598
sI1599
S'speller'
p1599
sI1600
S"georgia's"
p1600
sI1601
S'clearly'
p1601
sI1602
S'documents'
p1602
sI1603
S'dishes'
p1603
sI1604
S'studying'
p1604
sI1605
S'mechanism'
p1605
sI1606
S'linda'
p1606
sI1607
S'korean'
p1607
sI1608
S'soap'
p1608
sI1609
S'persistence'
p1609
sI1610
S'accuracy'
p1610
sI1611
S'nancy'
p1611
sI1612
S'freestanding'
p1612
sI1613
S'device'
p1613
sI1614
S'medal'
p1614
sI1615
S'stronger'
p1615
sI1616
S'thanksgiving'
p1616
sI1617
S'face'
p1617
sI1618
S"you'll"
p1618
sI1619
S'patricians'
p1619
sI1620
S'painting'
p1620
sI1621
S'fact'
p1621
sI1622
S'atmosphere'
p1622
sI1623
S'terminate'
p1623
sI1624
S'dissociate'
p1624
sI1625
S'bring'
p1625
sI1626
S'bikes'
p1626
sI1627
S'manchester'
p1627
sI1628
S'greenhouse'
p1628
sI1629
S'bedroom'
p1629
sI1630
S'unconnected'
p1630
sI1631
S'rough'
p1631
sI1632
S'decade'
p1632
sI1633
S'taps'
p1633
sI1634
S'jay'
p1634
sI1635
S'jar'
p1635
sI1636
S'should'
p1636
sI1637
S'buttons'
p1637
sI1638
S'planted'
p1638
sI1639
S'tape'
p1639
sI1640
S'molecules'
p1640
sI1641
S'riding'
p1641
sI1642
S'hope'
p1642
sI1643
S'meant'
p1643
sI1644
S'insight'
p1644
sI1645
S'handle'
p1645
sI1646
S'sweetie'
p1646
sI1647
S'means'
p1647
sI1648
S'intellectually'
p1648
sI1649
S'lucky'
p1649
sI1650
S'impeachment'
p1650
sI1651
S'listener'
p1651
sI1652
S'styrofoam'
p1652
sI1653
S'smash'
p1653
sI1654
S'circulation'
p1654
sI1655
S'taxes'
p1655
sI1656
S'stuff'
p1656
sI1657
S'ohio'
p1657
sI1658
S'rein'
p1658
sI1659
S'motorcycle'
p1659
sI1660
S'strengthened'
p1660
sI1661
S'appliance'
p1661
sI1662
S'frame'
p1662
sI1663
S'linguist'
p1663
sI1664
S'skateboarding'
p1664
sI1665
S'packed'
p1665
sI1666
S'wire'
p1666
sI1667
S'amtrak'
p1667
sI1668
S'nuclear'
p1668
sI1669
S'membrane'
p1669
sI1670
S'email'
p1670
sI1671
S'ends'
p1671
sI1672
S'explosive'
p1672
sI1673
S'lawsuit'
p1673
sI1674
S'invited'
p1674
sI1675
S'drug'
p1675
sI1676
S'innocently'
p1676
sI1677
S'gorgeous'
p1677
sI1678
S'adjusted'
p1678
sI1679
S'modeling'
p1679
sI1680
S'acres'
p1680
sI1681
S'apologize'
p1681
sI1682
S'genetic'
p1682
sI1683
S'poured'
p1683
sI1684
S'feather'
p1684
sI1685
S'waste'
p1685
sI1686
S'homosexual'
p1686
sI1687
S'c.'
p1687
sI1688
S'c-'
p1688
sI1689
S'atlanta'
p1689
sI1690
S'toasting'
p1690
sI1691
S'spain'
p1691
sI1692
S'laser'
p1692
sI1693
S'surprisingly'
p1693
sI1694
S'adventures'
p1694
sI1695
S'denial'
p1695
sI1696
S'carbohydrates'
p1696
sI1697
S'digging'
p1697
sI1698
S'terrorism'
p1698
sI1699
S'propagate'
p1699
sI1700
S'ball'
p1700
sI1701
S'drink'
p1701
sI1702
S'upon'
p1702
sI1703
S'nationally'
p1703
sI1704
S'v.'
p1704
sI1705
S'dust'
p1705
sI1706
S'broccoli'
p1706
sI1707
S'identity'
p1707
sI1708
S'diabetes'
p1708
sI1709
S'off'
p1709
sI1710
S'patterns'
p1710
sI1711
S'command'
p1711
sI1712
S'm._s._g.'
p1712
sI1713
S'audio'
p1713
sI1714
S'drawing'
p1714
sI1715
S'bothering'
p1715
sI1716
S'legendary'
p1716
sI1717
S'less'
p1717
sI1718
S'moments'
p1718
sI1719
S'rooms'
p1719
sI1720
S'paul'
p1720
sI1721
S'glue'
p1721
sI1722
S'unplugged'
p1722
sI1723
S'web'
p1723
sI1724
S'generous'
p1724
sI1725
S'arrest'
p1725
sI1726
S'combine'
p1726
sI1727
S'clipped'
p1727
sI1728
S'c._j.'
p1728
sI1729
S'increased'
p1729
sI1730
S'government'
p1730
sI1731
S'checking'
p1731
sI1732
S'cruz'
p1732
sI1733
S'cedar'
p1733
sI1734
S'mhm'
p1734
sI1735
S'onion'
p1735
sI1736
S'bulge'
p1736
sI1737
S'garage'
p1737
sI1738
S'become'
p1738
sI1739
S'replacement'
p1739
sI1740
S'amendment'
p1740
sI1741
S'thief'
p1741
sI1742
S'daylight'
p1742
sI1743
S'almonds'
p1743
sI1744
S'choosing'
p1744
sI1745
S'springs'
p1745
sI1746
S'oneself'
p1746
sI1747
S'jalapeno'
p1747
sI1748
S'literally'
p1748
sI1749
S'avoid'
p1749
sI1750
S'does'
p1750
sI1751
S'passion'
p1751
sI1752
S'capability'
p1752
sI1753
S'blurry'
p1753
sI1754
S'blowing'
p1754
sI1755
S'schedule'
p1755
sI1756
S'selecting'
p1756
sI1757
S'pressure'
p1757
sI1758
S'proceeded'
p1758
sI1759
S'loans'
p1759
sI1760
S'trials'
p1760
sI1761
S'stage'
p1761
sI1762
S'gained'
p1762
sI1763
S'sister'
p1763
sI1764
S'lifestyle'
p1764
sI1765
S'idolize'
p1765
sI1766
S'angeles'
p1766
sI1767
S'documentary'
p1767
sI1768
S'swimming'
p1768
sI1769
S'alliance'
p1769
sI1770
S'sharpness'
p1770
sI1771
S'commitment'
p1771
sI1772
S'parsley'
p1772
sI1773
S'lung'
p1773
sI1774
S'cultivated'
p1774
sI1775
S'roads'
p1775
sI1776
S'charities'
p1776
sI1777
S'twain'
p1777
sI1778
S'brownies'
p1778
sI1779
S'housing'
p1779
sI1780
S'spots'
p1780
sI1781
S'doing'
p1781
sI1782
S'frustration'
p1782
sI1783
S'naturally'
p1783
sI1784
S'function'
p1784
sI1785
S'delivery'
p1785
sI1786
S'construction'
p1786
sI1787
S'newtown'
p1787
sI1788
S'beeper'
p1788
sI1789
S'count'
p1789
sI1790
S'places'
p1790
sI1791
S'bloodline'
p1791
sI1792
S'official'
p1792
sI1793
S't._v.'
p1793
sI1794
S'volvo'
p1794
sI1795
S'frequency'
p1795
sI1796
S'problem'
p1796
sI1797
S'irish'
p1797
sI1798
S'recognize'
p1798
sI1799
S'contribute'
p1799
sI1800
S'slowing'
p1800
sI1801
S'replica'
p1801
sI1802
S'deeper'
p1802
sI1803
S'compared'
p1803
sI1804
S'variety'
p1804
sI1805
S'sexual'
p1805
sI1806
S'lately'
p1806
sI1807
S'details'
p1807
sI1808
S'repeat'
p1808
sI1809
S'monday'
p1809
sI1810
S'footprints'
p1810
sI1811
S'dismantle'
p1811
sI1812
S'outlets'
p1812
sI1813
S'chance'
p1813
sI1814
S'inspiration'
p1814
sI1815
S'searches'
p1815
sI1816
S'lasted'
p1816
sI1817
S'rule'
p1817
sI1818
S'pension'
p1818
sI1819
S'rural'
p1819
sI1820
S'gardens'
p1820
sI1821
S'consolidated'
p1821
sI1822
S'saver'
p1822
sI1823
S'saves'
p1823
sI1824
S'controversial'
p1824
sI1825
S'oldest'
p1825
sI1826
S'saved'
p1826
sI1827
S'stinks'
p1827
sI1828
S'speeded'
p1828
sI1829
S'bike'
p1829
sI1830
S'voted'
p1830
sI1831
S'worth'
p1831
sI1832
S'barley'
p1832
sI1833
S'blanket'
p1833
sI1834
S"women's"
p1834
sI1835
S'smog'
p1835
sI1836
S'chapel'
p1836
sI1837
S'tickets'
p1837
sI1838
S"we'll"
p1838
sI1839
S'progression'
p1839
sI1840
S'pinch'
p1840
sI1841
S'fruitcake'
p1841
sI1842
S'humidity'
p1842
sI1843
S'red'
p1843
sI1844
S'jamaica'
p1844
sI1845
S'phones'
p1845
sI1846
S'horn'
p1846
sI1847
S'chef'
p1847
sI1848
S'inflating'
p1848
sI1849
S'machines'
p1849
sI1850
S'established'
p1850
sI1851
S'rockies'
p1851
sI1852
S'lizard'
p1852
sI1853
S'bipolar'
p1853
sI1854
S'above'
p1854
sI1855
S'neat'
p1855
sI1856
S'officially'
p1856
sI1857
S'consisting'
p1857
sI1858
S'told'
p1858
sI1859
S'crunch'
p1859
sI1860
S'wrapping'
p1860
sI1861
S'equals'
p1861
sI1862
S'protection'
p1862
sI1863
S'pursuit'
p1863
sI1864
S'textured'
p1864
sI1865
S'miscarriage'
p1865
sI1866
S'celebration'
p1866
sI1867
S'daughter'
p1867
sI1868
S'items'
p1868
sI1869
S'study'
p1869
sI1870
S'adopt'
p1870
sI1871
S'smoke'
p1871
sI1872
S'calculators'
p1872
sI1873
S'diameter'
p1873
sI1874
S'secure'
p1874
sI1875
S'search'
p1875
sI1876
S'highly'
p1876
sI1877
S'opportunities'
p1877
sI1878
S'total'
p1878
sI1879
S'bra'
p1879
sI1880
S'sarah'
p1880
sI1881
S'plot'
p1881
sI1882
S'plop'
p1882
sI1883
S'palestinian'
p1883
sI1884
S'wintertime'
p1884
sI1885
S'gloss'
p1885
sI1886
S"world's"
p1886
sI1887
S'insult'
p1887
sI1888
S'indiana'
p1888
sI1889
S'separated'
p1889
sI1890
S'aware'
p1890
sI1891
S'backwards'
p1891
sI1892
S'allies'
p1892
sI1893
S'adamant'
p1893
sI1894
S'striving'
p1894
sI1895
S'springer'
p1895
sI1896
S'word'
p1896
sI1897
S'divorced'
p1897
sI1898
S'characterize'
p1898
sI1899
S'work'
p1899
sI1900
S'oxide'
p1900
sI1901
S'era'
p1901
sI1902
S'elbow'
p1902
sI1903
S'gloria'
p1903
sI1904
S'pollute'
p1904
sI1905
S'heartless'
p1905
sI1906
S'indicates'
p1906
sI1907
S'tornadoes'
p1907
sI1908
S'recovery'
p1908
sI1909
S'carriers'
p1909
sI1910
S'provide'
p1910
sI1911
S'verify'
p1911
sI1912
S'nuts'
p1912
sI1913
S'boats'
p1913
sI1914
S'ordinary'
p1914
sI1915
S'beach'
p1915
sI1916
S'gamble'
p1916
sI1917
S'pizza'
p1917
sI1918
S'fever'
p1918
sI1919
S'ladder'
p1919
sI1920
S'after'
p1920
sI1921
S'movable'
p1921
sI1922
S'lab'
p1922
sI1923
S'screwdriver'
p1923
sI1924
S'lay'
p1924
sI1925
S'suing'
p1925
sI1926
S'law'
p1926
sI1927
S'lap'
p1927
sI1928
S'complacent'
p1928
sI1929
S'thickens'
p1929
sI1930
S'appreciate'
p1930
sI1931
S'greet'
p1931
sI1932
S'stimulate'
p1932
sI1933
S'hamstrings'
p1933
sI1934
S'green'
p1934
sI1935
S'fan'
p1935
sI1936
S'order'
p1936
sI1937
S'greed'
p1937
sI1938
S'infested'
p1938
sI1939
S'office'
p1939
sI1940
S'devote'
p1940
sI1941
S'dirtiest'
p1941
sI1942
S'muffin'
p1942
sI1943
S'satisfied'
p1943
sI1944
S'plastics'
p1944
sI1945
S'japan'
p1945
sI1946
S'nets'
p1946
sI1947
S'ticket'
p1947
sI1948
S'adolescence'
p1948
sI1949
S'somewhere'
p1949
sI1950
S'highlights'
p1950
sI1951
S'production'
p1951
sI1952
S'vents'
p1952
sI1953
S'split'
p1953
sI1954
S'versus'
p1954
sI1955
S'then'
p1955
sI1956
S'them'
p1956
sI1957
S'affected'
p1957
sI1958
S'bans'
p1958
sI1959
S'safe'
p1959
sI1960
S'break'
p1960
sI1961
S'band'
p1961
sI1962
S'bang'
p1962
sI1963
S'sack'
p1963
sI1964
S'they'
p1964
sI1965
S'bank'
p1965
sI1966
S'bread'
p1966
sI1967
S'oxygen'
p1967
sI1968
S'slavery'
p1968
sI1969
S'rocks'
p1969
sI1970
S'reasonable'
p1970
sI1971
S'feeds'
p1971
sI1972
S'dumping'
p1972
sI1973
S'hosted'
p1973
sI1974
S'whining'
p1974
sI1975
S'network'
p1975
sI1976
S'dialects'
p1976
sI1977
S'cameras'
p1977
sI1978
S'hooked'
p1978
sI1979
S'forty'
p1979
sI1980
S'trainers'
p1980
sI1981
S'strangers'
p1981
sI1982
S'fellowship'
p1982
sI1983
S'daniel'
p1983
sI1984
S'owning'
p1984
sI1985
S'medicine'
p1985
sI1986
S'forth'
p1986
sI1987
S'sliding'
p1987
sI1988
S'hogan'
p1988
sI1989
S'dishwashers'
p1989
sI1990
S'barrier'
p1990
sI1991
S'leftovers'
p1991
sI1992
S'standard'
p1992
sI1993
S"people's"
p1993
sI1994
S'sadly'
p1994
sI1995
S'certified'
p1995
sI1996
S'shrubbery'
p1996
sI1997
S'recovering'
p1997
sI1998
S'created'
p1998
sI1999
S'refugee'
p1999
sI2000
S'creates'
p2000
sI2001
S'lousy'
p2001
sI2002
S'organize'
p2002
sI2003
S'designated'
p2003
sI2004
S'reconnected'
p2004
sI2005
S'another'
p2005
sI2006
S'thick'
p2006
sI2007
S'electronic'
p2007
sI2008
S'confectionery'
p2008
sI2009
S'crunches'
p2009
sI2010
S'approximately'
p2010
sI2011
S'compromise'
p2011
sI2012
S'inflate'
p2012
sI2013
S'john'
p2013
sI2014
S'dogs'
p2014
sI2015
S'damaging'
p2015
sI2016
S'grandchildren'
p2016
sI2017
S'albert'
p2017
sI2018
S'rejected'
p2018
sI2019
S'cereal'
p2019
sI2020
S'wasted'
p2020
sI2021
S'toronto'
p2021
sI2022
S'mercy'
p2022
sI2023
S'messing'
p2023
sI2024
S'target'
p2024
sI2025
S'glorified'
p2025
sI2026
S'scenes'
p2026
sI2027
S'iron'
p2027
sI2028
S'powers'
p2028
sI2029
S'minus'
p2029
sI2030
S'sportsmen'
p2030
sI2031
S'contents'
p2031
sI2032
S'forced'
p2032
sI2033
S'strength'
p2033
sI2034
S'genuine'
p2034
sI2035
S'laden'
p2035
sI2036
S'convenient'
p2036
sI2037
S'indexes'
p2037
sI2038
S'subjects'
p2038
sI2039
S'luxury'
p2039
sI2040
S'forces'
p2040
sI2041
S'transmit'
p2041
sI2042
S'completed'
p2042
sI2043
S'circles'
p2043
sI2044
S'gravy'
p2044
sI2045
S'bruce'
p2045
sI2046
S'extending'
p2046
sI2047
S'germany'
p2047
sI2048
S'exercises'
p2048
sI2049
S'grave'
p2049
sI2050
S"girl's"
p2050
sI2051
S'newcomers'
p2051
sI2052
S'yours'
p2052
sI2053
S'aunt'
p2053
sI2054
S'deeply'
p2054
sI2055
S'boyfriends'
p2055
sI2056
S'notion'
p2056
sI2057
S'fitted'
p2057
sI2058
S'd.'
p2058
sI2059
S'lewis'
p2059
sI2060
S'keywords'
p2060
sI2061
S'nephew'
p2061
sI2062
S'enjoyed'
p2062
sI2063
S'sewn'
p2063
sI2064
S'consciousness'
p2064
sI2065
S'pursuing'
p2065
sI2066
S'adequate'
p2066
sI2067
S'goalie'
p2067
sI2068
S'personality'
p2068
sI2069
S'do'
p2069
sI2070
S'di'
p2070
sI2071
S'rotated'
p2071
sI2072
S'de'
p2072
sI2073
S'vowels'
p2073
sI2074
S'dc'
p2074
sI2075
S'leisure'
p2075
sI2076
S'da'
p2076
sI2077
S'nasty'
p2077
sI2078
S'dr'
p2078
sI2079
S'runs'
p2079
sI2080
S'covering'
p2080
sI2081
S"children's"
p2081
sI2082
S'gears'
p2082
sI2083
S'steak'
p2083
sI2084
S'steal'
p2084
sI2085
S'steam'
p2085
sI2086
S'secretary'
p2086
sI2087
S'human'
p2087
sI2088
S'w.'
p2088
sI2089
S'lemonade'
p2089
sI2090
S'depends'
p2090
sI2091
S'miserable'
p2091
sI2092
S'techniques'
p2092
sI2093
S'mangoes'
p2093
sI2094
S'mitch'
p2094
sI2095
S'away'
p2095
sI2096
S'caved'
p2096
sI2097
S'unable'
p2097
sI2098
S'drawn'
p2098
sI2099
S'we'
p2099
sI2100
S'terms'
p2100
sI2101
S'handful'
p2101
sI2102
S'packaged'
p2102
sI2103
S'unfold'
p2103
sI2104
S'kitchen'
p2104
sI2105
S'received'
p2105
sI2106
S'essentially'
p2106
sI2107
S'sunflower'
p2107
sI2108
S'cow'
p2108
sI2109
S'ill'
p2109
sI2110
S'receives'
p2110
sI2111
S'brad'
p2111
sI2112
S'requests'
p2112
sI2113
S'com'
p2113
sI2114
S'con'
p2114
sI2115
S'peacefully'
p2115
sI2116
S'tough'
p2116
sI2117
S'royal'
p2117
sI2118
S'tons'
p2118
sI2119
S'tony'
p2119
sI2120
S'jays'
p2120
sI2121
S'speak'
p2121
sI2122
S'iraq'
p2122
sI2123
S'families'
p2123
sI2124
S'easy'
p2124
sI2125
S'relaxing'
p2125
sI2126
S'concerning'
p2126
sI2127
S'catering'
p2127
sI2128
S'gracious'
p2128
sI2129
S'applied'
p2129
sI2130
S'physician'
p2130
sI2131
S'has'
p2131
sI2132
S'blume'
p2132
sI2133
S'u._s.'
p2133
sI2134
S'air'
p2134
sI2135
S'applies'
p2135
sI2136
S'aid'
p2136
sI2137
S'rightness'
p2137
sI2138
S'voice'
p2138
sI2139
S'mistake'
p2139
sI2140
S'cylinder'
p2140
sI2141
S'sticker'
p2141
sI2142
S'dumped'
p2142
sI2143
S'audrey'
p2143
sI2144
S'tissue'
p2144
sI2145
S'brake'
p2145
sI2146
S"girls'"
p2146
sI2147
S'confirmed'
p2147
sI2148
S'perform'
p2148
sI2149
S'demonstration'
p2149
sI2150
S'jerry'
p2150
sI2151
S'incorrectly'
p2151
sI2152
S'plates'
p2152
sI2153
S'indictment'
p2153
sI2154
S'convictions'
p2154
sI2155
S'bunny'
p2155
sI2156
S'wheel'
p2156
sI2157
S'independent'
p2157
sI2158
S'saddam'
p2158
sI2159
S'hang'
p2159
sI2160
S'evil'
p2160
sI2161
S'hand'
p2161
sI2162
S'mountainous'
p2162
sI2163
S'producers'
p2163
sI2164
S'noncommercial'
p2164
sI2165
S'selfless'
p2165
sI2166
S'prescribed'
p2166
sI2167
S'kept'
p2167
sI2168
S'whereby'
p2168
sI2169
S'humble'
p2169
sI2170
S'drip'
p2170
sI2171
S'contact'
p2171
sI2172
S'the'
p2172
sI2173
S'musical'
p2173
sI2174
S'unified'
p2174
sI2175
S"she'll"
p2175
sI2176
S'traditions'
p2176
sI2177
S'athletic'
p2177
sI2178
S'photo'
p2178
sI2179
S'mid'
p2179
sI2180
S'thanks'
p2180
sI2181
S'swears'
p2181
sI2182
S'cervix'
p2182
sI2183
S'poses'
p2183
sI2184
S'hills'
p2184
sI2185
S'josh'
p2185
sI2186
S"ma'am"
p2186
sI2187
S'spread'
p2187
sI2188
S'board'
p2188
sI2189
S'righteous'
p2189
sI2190
S'expelled'
p2190
sI2191
S'usable'
p2191
sI2192
S'mayo'
p2192
sI2193
S'boxes'
p2193
sI2194
S'boxer'
p2194
sI2195
S"camel's"
p2195
sI2196
S'cape'
p2196
sI2197
S'hogs'
p2197
sI2198
S'cooler'
p2198
sI2199
S'night'
p2199
sI2200
S'security'
p2200
sI2201
S'cooled'
p2201
sI2202
S'korea'
p2202
sI2203
S'flatter'
p2203
sI2204
S'born'
p2204
sI2205
S'productions'
p2205
sI2206
S'hassle'
p2206
sI2207
S'flatten'
p2207
sI2208
S'confusing'
p2208
sI2209
S'denies'
p2209
sI2210
S'humor'
p2210
sI2211
S'purple'
p2211
sI2212
S'comments'
p2212
sI2213
S'filming'
p2213
sI2214
S'asking'
p2214
sI2215
S'imodium'
p2215
sI2216
S'beating'
p2216
sI2217
S'adorable'
p2217
sI2218
S'participation'
p2218
sI2219
S'peek'
p2219
sI2220
S'columbus'
p2220
sI2221
S'peel'
p2221
sI2222
S'marketing'
p2222
sI2223
S'lips'
p2223
sI2224
S'substitution'
p2224
sI2225
S'graduated'
p2225
sI2226
S'post'
p2226
sI2227
S'properties'
p2227
sI2228
S'newspapers'
p2228
sI2229
S'months'
p2229
sI2230
S'gingerbread'
p2230
sI2231
S'dilemma'
p2231
sI2232
S'pays'
p2232
sI2233
S'float'
p2233
sI2234
S'profession'
p2234
sI2235
S'bound'
p2235
sI2236
S'strangely'
p2236
sI2237
S'segment'
p2237
sI2238
S'available'
p2238
sI2239
S'fight'
p2239
sI2240
S'way'
p2240
sI2241
S'was'
p2241
sI2242
S'war'
p2242
sI2243
S'lowest'
p2243
sI2244
S'becoming'
p2244
sI2245
S'needles'
p2245
sI2246
S'elderly'
p2246
sI2247
S'sailboats'
p2247
sI2248
S'true'
p2248
sI2249
S'responding'
p2249
sI2250
S'maximum'
p2250
sI2251
S'crystal'
p2251
sI2252
S'cancers'
p2252
sI2253
S'emotional'
p2253
sI2254
S'prayed'
p2254
sI2255
S'promises'
p2255
sI2256
S'medication'
p2256
sI2257
S'hotter'
p2257
sI2258
S'gretzky'
p2258
sI2259
S'locust'
p2259
sI2260
S'muscular'
p2260
sI2261
S'evidence'
p2261
sI2262
S'prayer'
p2262
sI2263
S'distributions'
p2263
sI2264
S'mole'
p2264
sI2265
S'physical'
p2265
sI2266
S'dying'
p2266
sI2267
S'stake'
p2267
sI2268
S'handmade'
p2268
sI2269
S'reality'
p2269
sI2270
S'snakes'
p2270
sI2271
S'interested'
p2271
sI2272
S'carpeting'
p2272
sI2273
S'test'
p2273
sI2274
S'brothers'
p2274
sI2275
S"o'clock"
p2275
sI2276
S'welcome'
p2276
sI2277
S'update'
p2277
sI2278
S"let's"
p2278
sI2279
S'scores'
p2279
sI2280
S'flag'
p2280
sI2281
S'together'
p2281
sI2282
S'songs'
p2282
sI2283
S'concept'
p2283
sI2284
S'switched'
p2284
sI2285
S'dance'
p2285
sI2286
S'horseback'
p2286
sI2287
S'switches'
p2287
sI2288
S'daytime'
p2288
sI2289
S'grateful'
p2289
sI2290
S'battle'
p2290
sI2291
S'devoted'
p2291
sI2292
S'certainly'
p2292
sI2293
S'grape'
p2293
sI2294
S'shrinkage'
p2294
sI2295
S'flash'
p2295
sI2296
S'compensate'
p2296
sI2297
S'permanently'
p2297
sI2298
S'rhythm'
p2298
sI2299
S'brown'
p2299
sI2300
S'seemingly'
p2300
sI2301
S'automobiles'
p2301
sI2302
S'anonymous'
p2302
sI2303
S'trouble'
p2303
sI2304
S'blast'
p2304
sI2305
S'scandinavia'
p2305
sI2306
S'presented'
p2306
sI2307
S'turns'
p2307
sI2308
S'fragile'
p2308
sI2309
S'gun'
p2309
sI2310
S'gum'
p2310
sI2311
S't._j.'
p2311
sI2312
S'guy'
p2312
sI2313
S'upper'
p2313
sI2314
S'revolution'
p2314
sI2315
S'ferocious'
p2315
sI2316
S'regret'
p2316
sI2317
S'repetitive'
p2317
sI2318
S'discover'
p2318
sI2319
S'cost'
p2319
sI2320
S'helpless'
p2320
sI2321
S'cargo'
p2321
sI2322
S'appear'
p2322
sI2323
S'assistance'
p2323
sI2324
S'shares'
p2324
sI2325
S'uniform'
p2325
sI2326
S'shared'
p2326
sI2327
S'goldblum'
p2327
sI2328
S'supporting'
p2328
sI2329
S'muslim'
p2329
sI2330
S'goldfish'
p2330
sI2331
S'teaches'
p2331
sI2332
S'teacher'
p2332
sI2333
S'change'
p2333
sI2334
S'sending'
p2334
sI2335
S'incoming'
p2335
sI2336
S'lakers'
p2336
sI2337
S'trial'
p2337
sI2338
S'franklin'
p2338
sI2339
S'usually'
p2339
sI2340
S'pillow'
p2340
sI2341
S'regardless'
p2341
sI2342
S'hiking'
p2342
sI2343
S'extra'
p2343
sI2344
S'marked'
p2344
sI2345
S'snowboard'
p2345
sI2346
S'sufferers'
p2346
sI2347
S'disguising'
p2347
sI2348
S'flavors'
p2348
sI2349
S'prove'
p2349
sI2350
S'bury'
p2350
sI2351
S'rejuvenate'
p2351
sI2352
S'masturbating'
p2352
sI2353
S'live'
p2353
sI2354
S'angels'
p2354
sI2355
S'entrance'
p2355
sI2356
S'club'
p2356
sI2357
S'clue'
p2357
sI2358
S'instructional'
p2358
sI2359
S'slogan'
p2359
sI2360
S'defeats'
p2360
sI2361
S'car'
p2361
sI2362
S'cat'
p2362
sI2363
S'decker'
p2363
sI2364
S'hardest'
p2364
sI2365
S'can'
p2365
sI2366
S'cam'
p2366
sI2367
S'cab'
p2367
sI2368
S'breeds'
p2368
sI2369
S'heart'
p2369
sI2370
S'dedicated'
p2370
sI2371
S'december'
p2371
sI2372
S'chip'
p2372
sI2373
S"didn't"
p2373
sI2374
S'topic'
p2374
sI2375
S'heard'
p2375
sI2376
S'gabby'
p2376
sI2377
S'purity'
p2377
sI2378
S'reminded'
p2378
sI2379
S'clothing'
p2379
sI2380
S'airplane'
p2380
sI2381
S'productive'
p2381
sI2382
S'bankrupt'
p2382
sI2383
S'fortunately'
p2383
sI2384
S'discussion'
p2384
sI2385
S'spreads'
p2385
sI2386
S'freezer'
p2386
sI2387
S'freezes'
p2387
sI2388
S'write'
p2388
sI2389
S'familiar'
p2389
sI2390
S'economy'
p2390
sI2391
S'product'
p2391
sI2392
S'staircase'
p2392
sI2393
S'sacrifice'
p2393
sI2394
S'southern'
p2394
sI2395
S'produce'
p2395
sI2396
S'banding'
p2396
sI2397
S'heroes'
p2397
sI2398
S'lifting'
p2398
sI2399
S'remember'
p2399
sI2400
S'whenever'
p2400
sI2401
S'candles'
p2401
sI2402
S'beehive'
p2402
sI2403
S'typical'
p2403
sI2404
S'serving'
p2404
sI2405
S'correlation'
p2405
sI2406
S'indeed'
p2406
sI2407
S'haircut'
p2407
sI2408
S'playful'
p2408
sI2409
S'brain'
p2409
sI2410
S'tablets'
p2410
sI2411
S'cold'
p2411
sI2412
S'still'
p2412
sI2413
S'birds'
p2413
sI2414
S'selves'
p2414
sI2415
S'curls'
p2415
sI2416
S'shaping'
p2416
sI2417
S'forms'
p2417
sI2418
S'window'
p2418
sI2419
S'non'
p2419
sI2420
S'sweetened'
p2420
sI2421
S'introduce'
p2421
sI2422
S'half'
p2422
sI2423
S'not'
p2423
sI2424
S'now'
p2424
sI2425
S'hall'
p2425
sI2426
S'nor'
p2426
sI2427
S'january'
p2427
sI2428
S'drop'
p2428
sI2429
S'entirely'
p2429
sI2430
S'em'
p2430
sI2431
S'sugary'
p2431
sI2432
S'eh'
p2432
sI2433
S'sugars'
p2433
sI2434
S'directing'
p2434
sI2435
S'yeah'
p2435
sI2436
S'goose'
p2436
sI2437
S'wrap'
p2437
sI2438
S'fires'
p2438
sI2439
S'year'
p2439
sI2440
S'et'
p2440
sI2441
S'happen'
p2441
sI2442
S'teams'
p2442
sI2443
S'er'
p2443
sI2444
S'album'
p2444
sI2445
S'shown'
p2445
sI2446
S'medications'
p2446
sI2447
S'opened'
p2447
sI2448
S'space'
p2448
sI2449
S'increase'
p2449
sI2450
S'rational'
p2450
sI2451
S'receiving'
p2451
sI2452
S'shows'
p2452
sI2453
S'rebuilding'
p2453
sI2454
S'e.'
p2454
sI2455
S'cars'
p2455
sI2456
S'advantages'
p2456
sI2457
S'marine'
p2457
sI2458
S'card'
p2458
sI2459
S'care'
p2459
sI2460
S'transition'
p2460
sI2461
S'fonder'
p2461
sI2462
S'british'
p2462
sI2463
S'honest'
p2463
sI2464
S'invitation'
p2464
sI2465
S'promotion'
p2465
sI2466
S'blind'
p2466
sI2467
S'benefited'
p2467
sI2468
S'guessing'
p2468
sI2469
S'tippy'
p2469
sI2470
S'yourself'
p2470
sI2471
S'rink'
p2471
sI2472
S'impossible'
p2472
sI2473
S'message'
p2473
sI2474
S'drove'
p2474
sI2475
S'tomorrow'
p2475
sI2476
S"'em"
p2476
sI2477
S'size'
p2477
sI2478
S'sheet'
p2478
sI2479
S'silent'
p2479
sI2480
S'bookmark'
p2480
sI2481
S'caught'
p2481
sI2482
S'breed'
p2482
sI2483
S'heartburn'
p2483
sI2484
S'friend'
p2484
sI2485
S'nutrition'
p2485
sI2486
S'x.'
p2486
sI2487
S'mostly'
p2487
sI2488
S'that'
p2488
sI2489
S'transverse'
p2489
sI2490
S'eliminated'
p2490
sI2491
S'flowers'
p2491
sI2492
S'than'
p2492
sI2493
S'titans'
p2493
sI2494
S'professionals'
p2494
sI2495
S'television'
p2495
sI2496
S'tangible'
p2496
sI2497
S'transferred'
p2497
sI2498
S'optimism'
p2498
sI2499
S'karate'
p2499
sI2500
S'apples'
p2500
sI2501
S'fruits'
p2501
sI2502
S'browser'
p2502
sI2503
S'troublesome'
p2503
sI2504
S'c._d.'
p2504
sI2505
S'investors'
p2505
sI2506
S'craig'
p2506
sI2507
S'correction'
p2507
sI2508
S'slap'
p2508
sI2509
S'overnight'
p2509
sI2510
S'anger'
p2510
sI2511
S'breakfast'
p2511
sI2512
S'recover'
p2512
sI2513
S'form'
p2513
sI2514
S'renewing'
p2514
sI2515
S'lumps'
p2515
sI2516
S'veteran'
p2516
sI2517
S'manufacturers'
p2517
sI2518
S'equipment'
p2518
sI2519
S'hookah'
p2519
sI2520
S'online'
p2520
sI2521
S'begin'
p2521
sI2522
S'price'
p2522
sI2523
S'importantly'
p2523
sI2524
S'america'
p2524
sI2525
S'michelle'
p2525
sI2526
S'forever'
p2526
sI2527
S'egg'
p2527
sI2528
S'tooth'
p2528
sI2529
S'ferrari'
p2529
sI2530
S'professional'
p2530
sI2531
S'typically'
p2531
sI2532
S'german'
p2532
sI2533
S'fifty'
p2533
sI2534
S'discovered'
p2534
sI2535
S'maine'
p2535
sI2536
S'realizing'
p2536
sI2537
S'snack'
p2537
sI2538
S'ratio'
p2538
sI2539
S'title'
p2539
sI2540
S'monoxide'
p2540
sI2541
S'texture'
p2541
sI2542
S'only'
p2542
sI2543
S'inventions'
p2543
sI2544
S'stain'
p2544
sI2545
S'alcoholism'
p2545
sI2546
S'interstate'
p2546
sI2547
S'truly'
p2547
sI2548
S'cannot'
p2548
sI2549
S'squirrels'
p2549
sI2550
S'celebrate'
p2550
sI2551
S'tube'
p2551
sI2552
S'leather'
p2552
sI2553
S"everything's"
p2553
sI2554
S'husband'
p2554
sI2555
S'bulgaria'
p2555
sI2556
S'medicated'
p2556
sI2557
S'physically'
p2557
sI2558
S'actively'
p2558
sI2559
S'asleep'
p2559
sI2560
S'sport'
p2560
sI2561
S'concern'
p2561
sI2562
S'seekers'
p2562
sI2563
S'3'
sI2564
S'skyscraper'
p2563
sI2565
S'between'
p2564
sI2566
S'justified'
p2565
sI2567
S'whipped'
p2566
sI2568
S'conferencing'
p2567
sI2569
S'notice'
p2568
sI2570
S'blame'
p2569
sI2571
S'hurts'
p2570
sI2572
S'article'
p2571
sI2573
S'attaches'
p2572
sI2574
S'fliers'
p2573
sI2575
S'enabling'
p2574
sI2576
S't._h.'
p2575
sI2577
S'wheels'
p2576
sI2578
S'comes'
p2577
sI2579
S'nearby'
p2578
sI2580
S'madness'
p2579
sI2581
S'learning'
p2580
sI2582
S'forehand'
p2581
sI2583
S'sledding'
p2582
sI2584
S'pimples'
p2583
sI2585
S'cycling'
p2584
sI2586
S'cares'
p2585
sI2587
S'informed'
p2586
sI2588
S'cared'
p2587
sI2589
S'punished'
p2588
sI2590
S'dangers'
p2589
sI2591
S'technical'
p2590
sI2592
S'linguistic'
p2591
sI2593
S'exhaustion'
p2592
sI2594
S'straying'
p2593
sI2595
S'external'
p2594
sI2596
S'stems'
p2595
sI2597
S'developing'
p2596
sI2598
S'these'
p2597
sI2599
S'chinatown'
p2598
sI2600
S'trick'
p2599
sI2601
S'joke'
p2600
sI2602
S'thrillers'
p2601
sI2603
S"person's"
p2602
sI2604
S'coolest'
p2603
sI2605
S'polymer'
p2604
sI2606
S'orientation'
p2605
sI2607
S'alcoholic'
p2606
sI2608
S'soil'
p2607
sI2609
S'commander'
p2608
sI2610
S'muffins'
p2609
sI2611
S'return'
p2610
sI2612
S'stickers'
p2611
sI2613
S'floating'
p2612
sI2614
S'worry'
p2613
sI2615
S'develop'
p2614
sI2616
S'media'
p2615
sI2617
S'gentlemen'
p2616
sI2618
S'food'
p2617
sI2619
S'document'
p2618
sI2620
S'noble'
p2619
sI2621
S'sweeper'
p2620
sI2622
S'finish'
p2621
sI2623
S'centuries'
p2622
sI2624
S'closest'
p2623
sI2625
S'fruit'
p2624
sI2626
S'tradition'
p2625
sI2627
S'mentally'
p2626
sI2628
S'theater'
p2627
sI2629
S'traps'
p2628
sI2630
S'bondage'
p2629
sI2631
S'charges'
p2630
sI2632
S'constitutional'
p2631
sI2633
S'breezy'
p2632
sI2634
S'severe'
p2633
sI2635
S'breeze'
p2634
sI2636
S'otherwise'
p2635
sI2637
S'starbucks'
p2636
sI2638
S'valuable'
p2637
sI2639
S'foot'
p2638
sI2640
S'greetings'
p2639
sI2641
S'touch'
p2640
sI2642
S'speed'
p2641
sI2643
S'death'
p2642
sI2644
S'thinking'
p2643
sI2645
S'desktop'
p2644
sI2646
S'treatment'
p2645
sI2647
S'struck'
p2646
sI2648
S'momentum'
p2647
sI2649
S'kareem'
p2648
sI2650
S'real'
p2649
sI2651
S'propped'
p2650
sI2652
S'spectacular'
p2651
sI2653
S'read'
p2652
sI2654
S'gonna'
p2653
sI2655
S'early'
p2654
sI2656
S'listening'
p2655
sI2657
S'using'
p2656
sI2658
S'lady'
p2657
sI2659
S'rear'
p2658
sI2660
S'heightened'
p2659
sI2661
S'pounds'
p2660
sI2662
S'annually'
p2661
sI2663
S'benefit'
p2662
sI2664
S't'
sI2665
S'occasions'
p2663
sI2666
S'insured'
p2664
sI2667
S'twelve'
p2665
sI2668
S'verbal'
p2666
sI2669
S'apartments'
p2667
sI2670
S'exposes'
p2668
sI2671
S'questionnaire'
p2669
sI2672
S'fairs'
p2670
sI2673
S'oakland'
p2671
sI2674
S'deficit'
p2672
sI2675
S'recorder'
p2673
sI2676
S'assembly'
p2674
sI2677
S'business'
p2675
sI2678
S'equivalent'
p2676
sI2679
S'credits'
p2677
sI2680
S'hectic'
p2678
sI2681
S'sixty'
p2679
sI2682
S'leftover'
p2680
sI2683
S'exciting'
p2681
sI2684
S'throw'
p2682
sI2685
S'central'
p2683
sI2686
S"strike's"
p2684
sI2687
S'ideology'
p2685
sI2688
S'journey'
p2686
sI2689
S'lifestyles'
p2687
sI2690
S'underway'
p2688
sI2691
S'intent'
p2689
sI2692
S'backup'
p2690
sI2693
S'processor'
p2691
sI2694
S'heater'
p2692
sI2695
S'outlook'
p2693
sI2696
S'mouthpiece'
p2694
sI2697
S'protests'
p2695
sI2698
S'inclusion'
p2696
sI2699
S'involvement'
p2697
sI2700
S'heated'
p2698
sI2701
S'operator'
p2699
sI2702
S'nowadays'
p2700
sI2703
S'your'
p2701
sI2704
S'intervention'
p2702
sI2705
S'log'
p2703
sI2706
S'prepare'
p2704
sI2707
S'area'
p2705
sI2708
S'removing'
p2706
sI2709
S'start'
p2707
sI2710
S'cats'
p2708
sI2711
S'low'
p2709
sI2712
S'lot'
p2710
sI2713
S'lou'
p2711
sI2714
S'politeness'
p2712
sI2715
S'allergic'
p2713
sI2716
S'shower'
p2714
sI2717
S'trying'
p2715
sI2718
S'hire'
p2716
sI2719
S'embedded'
p2717
sI2720
S'bucket'
p2718
sI2721
S'tones'
p2719
sI2722
S'builders'
p2720
sI2723
S'beliefs'
p2721
sI2724
S'illnesses'
p2722
sI2725
S'describe'
p2723
sI2726
S'moved'
p2724
sI2727
S'reliability'
p2725
sI2728
S'moves'
p2726
sI2729
S'hospitals'
p2727
sI2730
S'innings'
p2728
sI2731
S'completeness'
p2729
sI2732
S'administered'
p2730
sI2733
S'storage'
p2731
sI2734
S'gambling'
p2732
sI2735
S'you'
p2733
sI2736
S'poor'
p2734
sI2737
S'syphillis'
p2735
sI2738
S'carpenter'
p2736
sI2739
S'massachusetts'
p2737
sI2740
S'suited'
p2738
sI2741
S'pool'
p2739
sI2742
S'building'
p2740
sI2743
S'condensation'
p2741
sI2744
S'apathy'
p2742
sI2745
S'overseas'
p2743
sI2746
S'boonies'
p2744
sI2747
S'surrounded'
p2745
sI2748
S'pointing'
p2746
sI2749
S'month'
p2747
sI2750
S'ceased'
p2748
sI2751
S'messy'
p2749
sI2752
S'discreetly'
p2750
sI2753
S'religious'
p2751
sI2754
S'carpet'
p2752
sI2755
S'dreadful'
p2753
sI2756
S'disassociate'
p2754
sI2757
S'daniella'
p2755
sI2758
S'foster'
p2756
sI2759
S'dinnertime'
p2757
sI2760
S'sustain'
p2758
sI2761
S'carburetor'
p2759
sI2762
S'very'
p2760
sI2763
S'bombarded'
p2761
sI2764
S'minded'
p2762
sI2765
S'decide'
p2763
sI2766
S'securely'
p2764
sI2767
S'heaven'
p2765
sI2768
S'louis'
p2766
sI2769
S'manager'
p2767
sI2770
S'circuit'
p2768
sI2771
S'skate'
p2769
sI2772
S'propane'
p2770
sI2773
S"i'll"
p2771
sI2774
S'cookies'
p2772
sI2775
S'fence'
p2773
sI2776
S'streets'
p2774
sI2777
S'greenspan'
p2775
sI2778
S'casual'
p2776
sI2779
S'abundant'
p2777
sI2780
S'darkness'
p2778
sI2781
S'consumers'
p2779
sI2782
S'ecclesiastical'
p2780
sI2783
S'investing'
p2781
sI2784
S'emotions'
p2782
sI2785
S'thickness'
p2783
sI2786
S'learned'
p2784
sI2787
S'turmoil'
p2785
sI2788
S'iran'
p2786
sI2789
S'litters'
p2787
sI2790
S'loose'
p2788
sI2791
S'illness-wise'
p2789
sI2792
S'answers'
p2790
sI2793
S'tracks'
p2791
sI2794
S'trunk'
p2792
sI2795
S'depend'
p2793
sI2796
S'strong'
p2794
sI2797
S'colored'
p2795
sI2798
S'ahead'
p2796
sI2799
S'houses'
p2797
sI2800
S'vegetarian'
p2798
sI2801
S'exceptionally'
p2799
sI2802
S'whiny'
p2800
sI2803
S'amount'
p2801
sI2804
S'advertising'
p2802
sI2805
S'rory'
p2803
sI2806
S'cathy'
p2804
sI2807
S'trainer'
p2805
sI2808
S'family'
p2806
sI2809
S'put'
p2807
sI2810
S'trained'
p2808
sI2811
S'toys'
p2809
sI2812
S'chunks'
p2810
sI2813
S'conventional'
p2811
sI2814
S'takes'
p2812
sI2815
S'answered'
p2813
sI2816
S'contains'
p2814
sI2817
S'almost'
p2815
sI2818
S'taken'
p2816
sI2819
S'injury'
p2817
sI2820
S'moodiness'
p2818
sI2821
S'bushes'
p2819
sI2822
S'site'
p2820
sI2823
S'excuse'
p2821
sI2824
S'broke'
p2822
sI2825
S'suction'
p2823
sI2826
S'hurry'
p2824
sI2827
S'grill'
p2825
sI2828
S'p._h._d.'
p2826
sI2829
S'nine'
p2827
sI2830
S'reshaping'
p2828
sI2831
S'spontaneous'
p2829
sI2832
S'history'
p2830
sI2833
S'pushes'
p2831
sI2834
S'pusher'
p2832
sI2835
S'pushed'
p2833
sI2836
S'phrase'
p2834
sI2837
S'firmly'
p2835
sI2838
S'chops'
p2836
sI2839
S'stayed'
p2837
sI2840
S'incisions'
p2838
sI2841
S'reject'
p2839
sI2842
S'surpasses'
p2840
sI2843
S'centimeters'
p2841
sI2844
S'm._p.'
p2842
sI2845
S'tried'
p2843
sI2846
S'rude'
p2844
sI2847
S'sneak'
p2845
sI2848
S'tries'
p2846
sI2849
S'a'
sI2850
S'criticize'
p2847
sI2851
S'documentation'
p2848
sI2852
S'bugs'
p2849
sI2853
S'anytime'
p2850
sI2854
S'bashing'
p2851
sI2855
S'chopsticks'
p2852
sI2856
S'scaring'
p2853
sI2857
S'crafts'
p2854
sI2858
S'banks'
p2855
sI2859
S'dream'
p2856
sI2860
S'help'
p2857
sI2861
S'reservoir'
p2858
sI2862
S'y.'
p2859
sI2863
S'soon'
p2860
sI2864
S'held'
p2861
sI2865
S'committee'
p2862
sI2866
S'committed'
p2863
sI2867
S'hell'
p2864
sI2868
S'mcdonalds'
p2865
sI2869
S'cardiovascular'
p2866
sI2870
S'fined'
p2867
sI2871
S'mites'
p2868
sI2872
S'actually'
p2869
sI2873
S'absence'
p2870
sI2874
S'systems'
p2871
sI2875
S'peanuts'
p2872
sI2876
S"haven't"
p2873
sI2877
S'finer'
p2874
sI2878
S'fool'
p2875
sI2879
S'evening'
p2876
sI2880
S'motivated'
p2877
sI2881
S'yo'
p2878
sI2882
S'ya'
p2879
sI2883
S'terrain'
p2880
sI2884
S'grandfathers'
p2881
sI2885
S"you've"
p2882
sI2886
S'sweeping'
p2883
sI2887
S'lightens'
p2884
sI2888
S'fully'
p2885
sI2889
S'bless'
p2886
sI2890
S'stopped'
p2887
sI2891
S'predators'
p2888
sI2892
S'obligated'
p2889
sI2893
S"isn't"
p2890
sI2894
S'heavy'
p2891
sI2895
S'wacky'
p2892
sI2896
S'democrat'
p2893
sI2897
S'beyond'
p2894
sI2898
S'event'
p2895
sI2899
S'bikers'
p2896
sI2900
S'robert'
p2897
sI2901
S'since'
p2898
sI2902
S'midsection'
p2899
sI2903
S'safety'
p2900
sI2904
S'7'
sI2905
S'issue'
p2901
sI2906
S'ass'
p2902
sI2907
S'sink'
p2903
sI2908
S'doppler'
p2904
sI2909
S'bass'
p2905
sI2910
S'dirt'
p2906
sI2911
S'labs'
p2907
sI2912
S'cornstarch'
p2908
sI2913
S'reason'
p2909
sI2914
S'base'
p2910
sI2915
S'unsightly'
p2911
sI2916
S'ask'
p2912
sI2917
S'bash'
p2913
sI2918
S'dishwasher'
p2914
sI2919
S'terrible'
p2915
sI2920
S'terribly'
p2916
sI2921
S'american'
p2917
sI2922
S'expecting'
p2918
sI2923
S'scouts'
p2919
sI2924
S'heartbeat'
p2920
sI2925
S'blush'
p2921
sI2926
S'olympia'
p2922
sI2927
S'superbowl'
p2923
sI2928
S'dominating'
p2924
sI2929
S'airborne'
p2925
sI2930
S'miss'
p2926
sI2931
S'maple'
p2927
sI2932
S'horse'
p2928
sI2933
S'sandusky'
p2929
sI2934
S'obedience'
p2930
sI2935
S"parkinson's"
p2931
sI2936
S'station'
p2932
sI2937
S'expand'
p2933
sI2938
S'scheme'
p2934
sI2939
S'banana'
p2935
sI2940
S'selling'
p2936
sI2941
S'storm'
p2937
sI2942
S'jamie'
p2938
sI2943
S'jordan'
p2939
sI2944
S'dissemble'
p2940
sI2945
S'authors'
p2941
sI2946
S'translation'
p2942
sI2947
S'sign'
p2943
sI2948
S'grocery'
p2944
sI2949
S'hundred'
p2945
sI2950
S'anticipate'
p2946
sI2951
S'impersonal'
p2947
sI2952
S'grey'
p2948
sI2953
S'scandinavian'
p2949
sI2954
S'greg'
p2950
sI2955
S'store'
p2951
sI2956
S'toward'
p2952
sI2957
S"mine's"
p2953
sI2958
S'contraception'
p2954
sI2959
S'juice'
p2955
sI2960
S'philly'
p2956
sI2961
S'lie'
p2957
sI2962
S'officers'
p2958
sI2963
S'lip'
p2959
sI2964
S'aggravating'
p2960
sI2965
S'caliber'
p2961
sI2966
S'quota'
p2962
sI2967
S'mace'
p2963
sI2968
S'hired'
p2964
sI2969
S'experiences'
p2965
sI2970
S'eaten'
p2966
sI2971
S'alpha'
p2967
sI2972
S'salary'
p2968
sI2973
S'sturdy'
p2969
sI2974
S'mobile'
p2970
sI2975
S'noone'
p2971
sI2976
S'snapping'
p2972
sI2977
S'unreasonable'
p2973
sI2978
S'm._b._a.'
p2974
sI2979
S'part-time'
p2975
sI2980
S'clean'
p2976
sI2981
S'latest'
p2977
sI2982
S'blend'
p2978
sI2983
S'hips'
p2979
sI2984
S'hyper'
p2980
sI2985
S'humid'
p2981
sI2986
S'league'
p2982
sI2987
S'celebrities'
p2983
sI2988
S'barbell'
p2984
sI2989
S'arming'
p2985
sI2990
S'northern'
p2986
sI2991
S'justice'
p2987
sI2992
S'paranoia'
p2988
sI2993
S'flights'
p2989
sI2994
S'pretty'
p2990
sI2995
S'circle'
p2991
sI2996
S'officials'
p2992
sI2997
S'upstanding'
p2993
sI2998
S'waterproof'
p2994
sI2999
S'financing'
p2995
sI3000
S'trees'
p2996
sI3001
S'famous'
p2997
sI3002
S'feels'
p2998
sI3003
S'grew'
p2999
sI3004
S'basement'
p3000
sI3005
S'during'
p3001
sI3006
S'workouts'
p3002
sI3007
S'catches'
p3003
sI3008
S'sacrificed'
p3004
sI3009
S'sacrifices'
p3005
sI3010
S'gloves'
p3006
sI3011
S'withdrawal'
p3007
sI3012
S'courteous'
p3008
sI3013
S'seventeen'
p3009
sI3014
S'throwing'
p3010
sI3015
S'culture'
p3011
sI3016
S'close'
p3012
sI3017
S'l._s._f.'
p3013
sI3018
S'pictures'
p3014
sI3019
S'wow'
p3015
sI3020
S'won'
p3016
sI3021
S'jazzercise'
p3017
sI3022
S'probably'
p3018
sI3023
S'conditions'
p3019
sI3024
S'uncanny'
p3020
sI3025
S'notoriously'
p3021
sI3026
S'missing'
p3022
sI3027
S'poorer'
p3023
sI3028
S'spray'
p3024
sI3029
S'distinguish'
p3025
sI3030
S'okinawa'
p3026
sI3031
S'both'
p3027
sI3032
S'secrets'
p3028
sI3033
S"wouldn't"
p3029
sI3034
S'minorities'
p3030
sI3035
S'forgotten'
p3031
sI3036
S'liked'
p3032
sI3037
S'charlotte'
p3033
sI3038
S'battery'
p3034
sI3039
S'manners'
p3035
sI3040
S'whatever'
p3036
sI3041
S'unfolded'
p3037
sI3042
S'likes'
p3038
sI3043
S'described'
p3039
sI3044
S'instilled'
p3040
sI3045
S'damn'
p3041
sI3046
S'maintenance'
p3042
sI3047
S'preventable'
p3043
sI3048
S'empty'
p3044
sI3049
S'walter'
p3045
sI3050
S'dialogue'
p3046
sI3051
S'lived'
p3047
sI3052
S'packs'
p3048
sI3053
S'shave'
p3049
sI3054
S'crack'
p3050
sI3055
S'else'
p3051
sI3056
S'anthony'
p3052
sI3057
S'lives'
p3053
sI3058
S'dialing'
p3054
sI3059
S'airforce'
p3055
sI3060
S'battling'
p3056
sI3061
S'governor'
p3057
sI3062
S'rope'
p3058
sI3063
S'pace'
p3059
sI3064
S'while'
p3060
sI3065
S'accidently'
p3061
sI3066
S'smart'
p3062
sI3067
S'shift'
p3063
sI3068
S'biking'
p3064
sI3069
S'guide'
p3065
sI3070
S'loop'
p3066
sI3071
S'pack'
p3067
sI3072
S'voters'
p3068
sI3073
S'overlooked'
p3069
sI3074
S'danes'
p3070
sI3075
S'fiona'
p3071
sI3076
S'reads'
p3072
sI3077
S'loosened'
p3073
sI3078
S'ready'
p3074
sI3079
S'anymore'
p3075
sI3080
S'belong'
p3076
sI3081
S'estee'
p3077
sI3082
S'grand'
p3078
sI3083
S'composition'
p3079
sI3084
S'conflict'
p3080
sI3085
S'hallway'
p3081
sI3086
S'indianapolis'
p3082
sI3087
S'temporary'
p3083
sI3088
S'overweight'
p3084
sI3089
S'uses'
p3085
sI3090
S'cleaning'
p3086
sI3091
S'older'
p3087
sI3092
S'increases'
p3088
sI3093
S'grind'
p3089
sI3094
S'consistency'
p3090
sI3095
S'clears'
p3091
sI3096
S'five'
p3092
sI3097
S'quarters'
p3093
sI3098
S'roasted'
p3094
sI3099
S'praying'
p3095
sI3100
S'retirement'
p3096
sI3101
S"spring's"
p3097
sI3102
S'guaranteed'
p3098
sI3103
S'exercising'
p3099
sI3104
S'cherries'
p3100
sI3105
S'harmonize'
p3101
sI3106
S'remaining'
p3102
sI3107
S'cheryl'
p3103
sI3108
S'march'
p3104
sI3109
S'showing'
p3105
sI3110
S'tiring'
p3106
sI3111
S'game'
p3107
sI3112
S'damage'
p3108
sI3113
S'wings'
p3109
sI3114
S'inviting'
p3110
sI3115
S'oncoming'
p3111
sI3116
S'multicultural'
p3112
sI3117
S'chairs'
p3113
sI3118
S'byproduct'
p3114
sI3119
S'translated'
p3115
sI3120
S'parade'
p3116
sI3121
S'brakes'
p3117
sI3122
S'creation'
p3118
sI3123
S'some'
p3119
sI3124
S'pierre'
p3120
sI3125
S'trends'
p3121
sI3126
S'towards'
p3122
sI3127
S'pathetically'
p3123
sI3128
S'trendy'
p3124
sI3129
S'describing'
p3125
sI3130
S'simmer'
p3126
sI3131
S'slash'
p3127
sI3132
S'minimal'
p3128
sI3133
S'sweating'
p3129
sI3134
S'inconvenience'
p3130
sI3135
S'eating'
p3131
sI3136
S'rub'
p3132
sI3137
S'booklet'
p3133
sI3138
S'processing'
p3134
sI3139
S'rug'
p3135
sI3140
S'step'
p3136
sI3141
S'negatives'
p3137
sI3142
S'lasts'
p3138
sI3143
S'abroad'
p3139
sI3144
S'shine'
p3140
sI3145
S'faith'
p3141
sI3146
S'tracing'
p3142
sI3147
S'hinge'
p3143
sI3148
S'pains'
p3144
sI3149
S'congressman'
p3145
sI3150
S'shiny'
p3146
sI3151
S'silence'
p3147
sI3152
S'seeing'
p3148
sI3153
S"'cause"
p3149
sI3154
S'visit'
p3150
sI3155
S'within'
p3151
sI3156
S'fredericksburg'
p3152
sI3157
S'smelly'
p3153
sI3158
S'pentagon'
p3154
sI3159
S'rolls'
p3155
sI3160
S'smells'
p3156
sI3161
S'connector'
p3157
sI3162
S'statistics'
p3158
sI3163
S'placing'
p3159
sI3164
S'accountability'
p3160
sI3165
S'heritage'
p3161
sI3166
S'kamikaze'
p3162
sI3167
S'himself'
p3163
sI3168
S'registered'
p3164
sI3169
S'frost'
p3165
sI3170
S'properly'
p3166
sI3171
S'alive'
p3167
sI3172
S'newer'
p3168
sI3173
S'russian'
p3169
sI3174
S'dealers'
p3170
sI3175
S'info'
p3171
sI3176
S'ideals'
p3172
sI3177
S'circuits'
p3173
sI3178
S'accustomed'
p3174
sI3179
S'similar'
p3175
sI3180
S'clear'
p3176
sI3181
S'adults'
p3177
sI3182
S'kidney'
p3178
sI3183
S'amounts'
p3179
sI3184
S'nah'
p3180
sI3185
S'nan'
p3181
sI3186
S'application'
p3182
sI3187
S'nap'
p3183
sI3188
S'electrical'
p3184
sI3189
S'department'
p3185
sI3190
S'manhattan'
p3186
sI3191
S'dashes'
p3187
sI3192
S'hayward'
p3188
sI3193
S'smiles'
p3189
sI3194
S'draw'
p3190
sI3195
S'kansas'
p3191
sI3196
S'visits'
p3192
sI3197
S'regulations'
p3193
sI3198
S'structure'
p3194
sI3199
S'practically'
p3195
sI3200
S'tubes'
p3196
sI3201
S'outing'
p3197
sI3202
S'required'
p3198
sI3203
S'youtube'
p3199
sI3204
S"she'd"
p3200
sI3205
S'bribe'
p3201
sI3206
S"she's"
p3202
sI3207
S'requires'
p3203
sI3208
S'sounded'
p3204
sI3209
S'evenly'
p3205
sI3210
S'desserts'
p3206
sI3211
S'go'
p3207
sI3212
S'barbecue'
p3208
sI3213
S'psycho'
p3209
sI3214
S'nose'
p3210
sI3215
S'friendly'
p3211
sI3216
S'relocated'
p3212
sI3217
S'kitty'
p3213
sI3218
S'wave'
p3214
sI3219
S'telling'
p3215
sI3220
S'asparagus'
p3216
sI3221
S'positions'
p3217
sI3222
S'button'
p3218
sI3223
S'michael'
p3219
sI3224
S'watered'
p3220
sI3225
S'ryan'
p3221
sI3226
S'barbara'
p3222
sI3227
S'enforce'
p3223
sI3228
S'overloaded'
p3224
sI3229
S'carter'
p3225
sI3230
S'waking'
p3226
sI3231
S'jump'
p3227
sI3232
S'hose'
p3228
sI3233
S'believer'
p3229
sI3234
S'picked'
p3230
sI3235
S'download'
p3231
sI3236
S'honors'
p3232
sI3237
S'sausage'
p3233
sI3238
S'cupcakes'
p3234
sI3239
S'plays'
p3235
sI3240
S'colonel'
p3236
sI3241
S'cell'
p3237
sI3242
S'rotten'
p3238
sI3243
S'experiment'
p3239
sI3244
S'poles'
p3240
sI3245
S'referees'
p3241
sI3246
S'tournaments'
p3242
sI3247
S'focuses'
p3243
sI3248
S'stance'
p3244
sI3249
S'commercial'
p3245
sI3250
S'fifteenth'
p3246
sI3251
S'believed'
p3247
sI3252
S'focused'
p3248
sI3253
S'pancake'
p3249
sI3254
S'deserts'
p3250
sI3255
S'reoccurring'
p3251
sI3256
S'products'
p3252
sI3257
S"weren't"
p3253
sI3258
S'nameless'
p3254
sI3259
S'addresses'
p3255
sI3260
S'airspace'
p3256
sI3261
S'danger'
p3257
sI3262
S'win'
p3258
sI3263
S'manage'
p3259
sI3264
S'crazy'
p3260
sI3265
S'ligament'
p3261
sI3266
S'singing'
p3262
sI3267
S'cloud'
p3263
sI3268
S'handfuls'
p3264
sI3269
S'strapped'
p3265
sI3270
S'crap'
p3266
sI3271
S'remains'
p3267
sI3272
S'camera'
p3268
sI3273
S'vehicle'
p3269
sI3274
S'cram'
p3270
sI3275
S'jonathan'
p3271
sI3276
S'cheeks'
p3272
sI3277
S'popped'
p3273
sI3278
S'started'
p3274
sI3279
S'initial'
p3275
sI3280
S'about'
p3276
sI3281
S'charming'
p3277
sI3282
S'socket'
p3278
sI3283
S'crosses'
p3279
sI3284
S'salad'
p3280
sI3285
S'ride'
p3281
sI3286
S'recession'
p3282
sI3287
S'meet'
p3283
sI3288
S'drops'
p3284
sI3289
S'point'
p3285
sI3290
S'providers'
p3286
sI3291
S'halloween'
p3287
sI3292
S'escaped'
p3288
sI3293
S'pulling'
p3289
sI3294
S'wonderful'
p3290
sI3295
S'hesitate'
p3291
sI3296
S'campers'
p3292
sI3297
S'arrangement'
p3293
sI3298
S'located'
p3294
sI3299
S'sentiments'
p3295
sI3300
S'circular'
p3296
sI3301
S'farm'
p3297
sI3302
S'ronald'
p3298
sI3303
S'spelling'
p3299
sI3304
S'catty'
p3300
sI3305
S'cutlery'
p3301
sI3306
S'contraceptives'
p3302
sI3307
S'scoop'
p3303
sI3308
S'bakery'
p3304
sI3309
S'agenda'
p3305
sI3310
S'bakers'
p3306
sI3311
S'software'
p3307
sI3312
S'rebellious'
p3308
sI3313
S"won't"
p3309
sI3314
S'cruise'
p3310
sI3315
S'mentioned'
p3311
sI3316
S'masses'
p3312
sI3317
S'emails'
p3313
sI3318
S'imbalance'
p3314
sI3319
S'auto'
p3315
sI3320
S'damages'
p3316
sI3321
S'sweets'
p3317
sI3322
S'hands'
p3318
sI3323
S'front'
p3319
sI3324
S'documented'
p3320
sI3325
S'handy'
p3321
sI3326
S"marshal's"
p3322
sI3327
S'masters'
p3323
sI3328
S'chronic'
p3324
sI3329
S'university'
p3325
sI3330
S'slide'
p3326
sI3331
S'magnitude'
p3327
sI3332
S'perfectionist'
p3328
sI3333
S'mode'
p3329
sI3334
S'crossing'
p3330
sI3335
S'shaking'
p3331
sI3336
S'upward'
p3332
sI3337
S'conceiving'
p3333
sI3338
S'ankles'
p3334
sI3339
S'soften'
p3335
sI3340
S'chunk'
p3336
sI3341
S'citric'
p3337
sI3342
S'constitute'
p3338
sI3343
S'measure'
p3339
sI3344
S'special'
p3340
sI3345
S'marigolds'
p3341
sI3346
S'entertainment'
p3342
sI3347
S'granddaughters'
p3343
sI3348
S'strokes'
p3344
sI3349
S'playground'
p3345
sI3350
S'cause'
p3346
sI3351
S"one's"
p3347
sI3352
S'alleged'
p3348
sI3353
S'hopscotch'
p3349
sI3354
S'undo'
p3350
sI3355
S'completely'
p3351
sI3356
S'hostile'
p3352
sI3357
S'route'
p3353
sI3358
S'florida'
p3354
sI3359
S'membership'
p3355
sI3360
S'keep'
p3356
sI3361
S'stride'
p3357
sI3362
S'austin'
p3358
sI3363
S'vegetables'
p3359
sI3364
S'designed'
p3360
sI3365
S'powerful'
p3361
sI3366
S'cramp'
p3362
sI3367
S'flows'
p3363
sI3368
S'drinker'
p3364
sI3369
S'precisely'
p3365
sI3370
S'quality'
p3366
sI3371
S"you're"
p3367
sI3372
S'management'
p3368
sI3373
S'dishwashing'
p3369
sI3374
S'bears'
p3370
sI3375
S'data'
p3371
sI3376
S'adopted'
p3372
sI3377
S'attach'
p3373
sI3378
S'attack'
p3374
sI3379
S'wrapped'
p3375
sI3380
S'perfectly'
p3376
sI3381
S'final'
p3377
sI3382
S'townsend'
p3378
sI3383
S'2-3'
p3379
sI3384
S'craziest'
p3380
sI3385
S'exactly'
p3381
sI3386
S'chemicals'
p3382
sI3387
S"that'll"
p3383
sI3388
S'overwhelming'
p3384
sI3389
S'herself'
p3385
sI3390
S'updating'
p3386
sI3391
S'heartedly'
p3387
sI3392
S'submitted'
p3388
sI3393
S'bee'
p3389
sI3394
S'claim'
p3390
sI3395
S'sultry'
p3391
sI3396
S'bet'
p3392
sI3397
S'behaviors'
p3393
sI3398
S'lightly'
p3394
sI3399
S'tabs'
p3395
sI3400
S'carrots'
p3396
sI3401
S'keller'
p3397
sI3402
S'need'
p3398
sI3403
S'border'
p3399
sI3404
S'screw'
p3400
sI3405
S'microphone'
p3401
sI3406
S'sprinkles'
p3402
sI3407
S'sprinkler'
p3403
sI3408
S'physique'
p3404
sI3409
S'instance'
p3405
sI3410
S'relatives'
p3406
sI3411
S'truck'
p3407
sI3412
S'reentering'
p3408
sI3413
S'weans'
p3409
sI3414
S'montana'
p3410
sI3415
S'connected'
p3411
sI3416
S'demise'
p3412
sI3417
S'padlocks'
p3413
sI3418
S'awe'
p3414
sI3419
S'gallery'
p3415
sI3420
S'cellphone'
p3416
sI3421
S'consequences'
p3417
sI3422
S'landscaping'
p3418
sI3423
S'upset'
p3419
sI3424
S'overhearing'
p3420
sI3425
S'scrambled'
p3421
sI3426
S'lowered'
p3422
sI3427
S'snapshot'
p3423
sI3428
S'gesture'
p3424
sI3429
S'impression'
p3425
sI3430
S'liters'
p3426
sI3431
S'indoor'
p3427
sI3432
S'anyway'
p3428
sI3433
S'soldiers'
p3429
sI3434
S'partners'
p3430
sI3435
S'envy'
p3431
sI3436
S'based'
p3432
sI3437
S'tire'
p3433
sI3438
S'fiberglass'
p3434
sI3439
S'winner'
p3435
sI3440
S'hopeful'
p3436
sI3441
S'degrading'
p3437
sI3442
S'receptors'
p3438
sI3443
S'bases'
p3439
sI3444
S'shelby'
p3440
sI3445
S'fuel'
p3441
sI3446
S'girlie'
p3442
sI3447
S'achieve'
p3443
sI3448
S'crumbling'
p3444
sI3449
S'michigan'
p3445
sI3450
S'overall'
p3446
sI3451
S'joint'
p3447
sI3452
S'fallout'
p3448
sI3453
S'gray'
p3449
sI3454
S'evident'
p3450
sI3455
S'trucks'
p3451
sI3456
S'course'
p3452
sI3457
S'shy'
p3453
sI3458
S'gras'
p3454
sI3459
S'mohammed'
p3455
sI3460
S'tuned'
p3456
sI3461
S"somebody's"
p3457
sI3462
S'nutmeg'
p3458
sI3463
S'she'
p3459
sI3464
S'wish'
p3460
sI3465
S'grab'
p3461
sI3466
S'grad'
p3462
sI3467
S'widow'
p3463
sI3468
S'prayers'
p3464
sI3469
S'hardwood'
p3465
sI3470
S'smooth'
p3466
sI3471
S'pitch'
p3467
sI3472
S'humans'
p3468
sI3473
S'freeze'
p3469
sI3474
S'reinforce'
p3470
sI3475
S'accused'
p3471
sI3476
S'driveway'
p3472
sI3477
S'desperate'
p3473
sI3478
S'humane'
p3474
sI3479
S'nightmare'
p3475
sI3480
S'horribly'
p3476
sI3481
S'tend'
p3477
sI3482
S'written'
p3478
sI3483
S'convince'
p3479
sI3484
S'correctly'
p3480
sI3485
S'horrible'
p3481
sI3486
S'neither'
p3482
sI3487
S'tent'
p3483
sI3488
S'nutritious'
p3484
sI3489
S'comparable'
p3485
sI3490
S'importance'
p3486
sI3491
S'buckets'
p3487
sI3492
S'interfere'
p3488
sI3493
S'efficiency'
p3489
sI3494
S'key'
p3490
sI3495
S'approval'
p3491
sI3496
S'precious'
p3492
sI3497
S'distribution'
p3493
sI3498
S'monitor'
p3494
sI3499
S'hits'
p3495
sI3500
S'limits'
p3496
sI3501
S'career'
p3497
sI3502
S'minds'
p3498
sI3503
S'jersey'
p3499
sI3504
S'torn'
p3500
sI3505
S'tuesday'
p3501
sI3506
S'quit'
p3502
sI3507
S'inhale'
p3503
sI3508
S'addition'
p3504
sI3509
S'thanked'
p3505
sI3510
S'slowly'
p3506
sI3511
S'treat'
p3507
sI3512
S'shoulders'
p3508
sI3513
S'controlled'
p3509
sI3514
S'technologically'
p3510
sI3515
S'releasing'
p3511
sI3516
S'ours'
p3512
sI3517
S'smoking'
p3513
sI3518
S'novel'
p3514
sI3519
S'harder'
p3515
sI3520
S'surface'
p3516
sI3521
S'swinging'
p3517
sI3522
S'bucks'
p3518
sI3523
S'lambs'
p3519
sI3524
S'capture'
p3520
sI3525
S'balloon'
p3521
sI3526
S'upside'
p3522
sI3527
S'strange'
p3523
sI3528
S'speaker'
p3524
sI3529
S'northwest'
p3525
sI3530
S'underground'
p3526
sI3531
S'party'
p3527
sI3532
S'practitioner'
p3528
sI3533
S'canadians'
p3529
sI3534
S'effect'
p3530
sI3535
S'fierce'
p3531
sI3536
S'frequently'
p3532
sI3537
S'destruction'
p3533
sI3538
S'transaction'
p3534
sI3539
S'reflection'
p3535
sI3540
S'i'
sI3541
S'obstacles'
p3536
sI3542
S'well'
p3537
sI3543
S'deadly'
p3538
sI3544
S'restore'
p3539
sI3545
S'taller'
p3540
sI3546
S'increasingly'
p3541
sI3547
S'accurate'
p3542
sI3548
S'click'
p3543
sI3549
S'dose'
p3544
sI3550
S'mistakes'
p3545
sI3551
S'skill'
p3546
sI3552
S'parchment'
p3547
sI3553
S'jeff'
p3548
sI3554
S'extends'
p3549
sI3555
S'runners'
p3550
sI3556
S'kick'
p3551
sI3557
S'immediately'
p3552
sI3558
S'crushes'
p3553
sI3559
S'loss'
p3554
sI3560
S'fleas'
p3555
sI3561
S'necessary'
p3556
sI3562
S'lost'
p3557
sI3563
S'sizes'
p3558
sI3564
S'exploiting'
p3559
sI3565
S'fingerprints'
p3560
sI3566
S'fernando'
p3561
sI3567
S'clown'
p3562
sI3568
S'sized'
p3563
sI3569
S'tablespoons'
p3564
sI3570
S'lose'
p3565
sI3571
S'page'
p3566
sI3572
S'shed'
p3567
sI3573
S'library'
p3568
sI3574
S'frisbee'
p3569
sI3575
S'warmer'
p3570
sI3576
S'cleveland'
p3571
sI3577
S'home'
p3572
sI3578
S'peter'
p3573
sI3579
S'demonstrates'
p3574
sI3580
S'grinding'
p3575
sI3581
S'wendy'
p3576
sI3582
S'coated'
p3577
sI3583
S'reaching'
p3578
sI3584
S'offset'
p3579
sI3585
S'cataracts'
p3580
sI3586
S'freedom'
p3581
sI3587
S'cleans'
p3582
sI3588
S'recognized'
p3583
sI3589
S'compatible'
p3584
sI3590
S'tongue'
p3585
sI3591
S'equally'
p3586
sI3592
S'carolyn'
p3587
sI3593
S'glenn'
p3588
sI3594
S'previously'
p3589
sI3595
S'washington'
p3590
sI3596
S'cocoa'
p3591
sI3597
S'h.'
p3592
sI3598
S'artists'
p3593
sI3599
S'managing'
p3594
sI3600
S'bombay'
p3595
sI3601
S'mississippi'
p3596
sI3602
S'additional'
p3597
sI3603
S'whom'
p3598
sI3604
S'museum'
p3599
sI3605
S'l._a.'
p3600
sI3606
S'noticed'
p3601
sI3607
S'accountant'
p3602
sI3608
S'inner'
p3603
sI3609
S'exposure'
p3604
sI3610
S'recruited'
p3605
sI3611
S'ghost'
p3606
sI3612
S'north'
p3607
sI3613
S'polite'
p3608
sI3614
S'agrees'
p3609
sI3615
S'administrators'
p3610
sI3616
S'neutral'
p3611
sI3617
S'hi'
p3612
sI3618
S'goals'
p3613
sI3619
S'technician'
p3614
sI3620
S'sprinkling'
p3615
sI3621
S'highest'
p3616
sI3622
S'eat'
p3617
sI3623
S'he'
p3618
sI3624
S'cells'
p3619
sI3625
S'signed'
p3620
sI3626
S'stories'
p3621
sI3627
S'pumped'
p3622
sI3628
S'piece'
p3623
sI3629
S'display'
p3624
sI3630
S'mechanics'
p3625
sI3631
S'universal'
p3626
sI3632
S'penny'
p3627
sI3633
S'kisses'
p3628
sI3634
S'twist'
p3629
sI3635
S'conan'
p3630
sI3636
S'education'
p3631
sI3637
S'diego'
p3632
sI3638
S'functions'
p3633
sI3639
S'ingredients'
p3634
sI3640
S'offensive'
p3635
sI3641
S'onwards'
p3636
sI3642
S'crummy'
p3637
sI3643
S'misconceptions'
p3638
sI3644
S'star'
p3639
sI3645
S'stay'
p3640
sI3646
S'stab'
p3641
sI3647
S'nintendo'
p3642
sI3648
S'friends'
p3643
sI3649
S'samsung'
p3644
sI3650
S'portion'
p3645
sI3651
S'indirectly'
p3646
sI3652
S'richard'
p3647
sI3653
S'secondly'
p3648
sI3654
S'pardon'
p3649
sI3655
S'whoops'
p3650
sI3656
S'temperament'
p3651
sI3657
S'dynamic'
p3652
sI3658
S'protest'
p3653
sI3659
S'whose'
p3654
sI3660
S'buddy'
p3655
sI3661
S'refinish'
p3656
sI3662
S'presents'
p3657
sI3663
S'swat'
p3658
sI3664
S'exploding'
p3659
sI3665
S'swap'
p3660
sI3666
S'slushing'
p3661
sI3667
S'recycle'
p3662
sI3668
S'teaching'
p3663
sI3669
S'sorry'
p3664
sI3670
S'sway'
p3665
sI3671
S'winfrey'
p3666
sI3672
S'rescue'
p3667
sI3673
S'downstream'
p3668
sI3674
S'void'
p3669
sI3675
S'connects'
p3670
sI3676
S'stolen'
p3671
sI3677
S'affect'
p3672
sI3678
S'courageous'
p3673
sI3679
S'vast'
p3674
sI3680
S'look'
p3675
sI3681
S'baking'
p3676
sI3682
S'skills'
p3677
sI3683
S'companies'
p3678
sI3684
S'solution'
p3679
sI3685
S'convenience'
p3680
sI3686
S'ups'
p3681
sI3687
S'clothes'
p3682
sI3688
S'force'
p3683
sI3689
S'japanese'
p3684
sI3690
S'crave'
p3685
sI3691
S'monster'
p3686
sI3692
S'even'
p3687
sI3693
S'panama'
p3688
sI3694
S'lights'
p3689
sI3695
S'snowing'
p3690
sI3696
S'new'
p3691
sI3697
S'tips'
p3692
sI3698
S'ever'
p3693
sI3699
S'helmets'
p3694
sI3700
S'never'
p3695
sI3701
S'met'
p3696
sI3702
S'active'
p3697
sI3703
S'cardboard'
p3698
sI3704
S'dry'
p3699
sI3705
S'luther'
p3700
sI3706
S'tapes'
p3701
sI3707
S'moustache'
p3702
sI3708
S'economics'
p3703
sI3709
S'credit'
p3704
sI3710
S"someone's"
p3705
sI3711
S'adolescents'
p3706
sI3712
S'whatnot'
p3707
sI3713
S"i._t._n.'s"
p3708
sI3714
S'campaign'
p3709
sI3715
S'slices'
p3710
sI3716
S'reagan'
p3711
sI3717
S'county'
p3712
sI3718
S'ninety'
p3713
sI3719
S'moral'
p3714
sI3720
S'counts'
p3715
sI3721
S'overhear'
p3716
sI3722
S'army'
p3717
sI3723
S'watering'
p3718
sI3724
S'arms'
p3719
sI3725
S'call'
p3720
sI3726
S'calm'
p3721
sI3727
S'recommend'
p3722
sI3728
S'survive'
p3723
sI3729
S'type'
p3724
sI3730
S'tell'
p3725
sI3731
S'lungs'
p3726
sI3732
S'wary'
p3727
sI3733
S'expose'
p3728
sI3734
S'wars'
p3729
sI3735
S'warm'
p3730
sI3736
S'adult'
p3731
sI3737
S'shelters'
p3732
sI3738
S'shepherds'
p3733
sI3739
S'room'
p3734
sI3740
S'rights'
p3735
sI3741
S'somber'
p3736
sI3742
S'roof'
p3737
sI3743
S'movies'
p3738
sI3744
S'solitaire'
p3739
sI3745
S'l._c._d.'
p3740
sI3746
S'lifesavers'
p3741
sI3747
S'squirting'
p3742
sI3748
S'give'
p3743
sI3749
S'wrenches'
p3744
sI3750
S'honey'
p3745
sI3751
S'foods'
p3746
sI3752
S'aging'
p3747
sI3753
S'sideline'
p3748
sI3754
S'shelving'
p3749
sI3755
S'colds'
p3750
sI3756
S'boroughs'
p3751
sI3757
S'amazing'
p3752
sI3758
S'answer'
p3753
sI3759
S'blanks'
p3754
sI3760
S'minority'
p3755
sI3761
S'replacing'
p3756
sI3762
S'manuals'
p3757
sI3763
S'abdomen'
p3758
sI3764
S'president'
p3759
sI3765
S'summarize'
p3760
sI3766
S"team's"
p3761
sI3767
S'royce'
p3762
sI3768
S'purchase'
p3763
sI3769
S'attempt'
p3764
sI3770
S'third'
p3765
sI3771
S'capitalism'
p3766
sI3772
S'maintain'
p3767
sI3773
S'frequent'
p3768
sI3774
S'goodbye'
p3769
sI3775
S'operate'
p3770
sI3776
S'rewiring'
p3771
sI3777
S'gettysburg'
p3772
sI3778
S'banged'
p3773
sI3779
S'windshield'
p3774
sI3780
S'before'
p3775
sI3781
S'harmonica'
p3776
sI3782
S'personal'
p3777
sI3783
S'soaking'
p3778
sI3784
S'crew'
p3779
sI3785
S'better'
p3780
sI3786
S'cooperstown'
p3781
sI3787
S'chatty'
p3782
sI3788
S'weeks'
p3783
sI3789
S'overcome'
p3784
sI3790
S'p._s.'
p3785
sI3791
S'combination'
p3786
sI3792
S'workout'
p3787
sI3793
S'therapy'
p3788
sI3794
S'bluish'
p3789
sI3795
S'decorator'
p3790
sI3796
S'grammar'
p3791
sI3797
S'meat'
p3792
sI3798
S'arrested'
p3793
sI3799
S'lucy'
p3794
sI3800
S'baylor'
p3795
sI3801
S'ventilation'
p3796
sI3802
S'victories'
p3797
sI3803
S'roast'
p3798
sI3804
S"doctor's"
p3799
sI3805
S'went'
p3800
sI3806
S'side'
p3801
sI3807
S'bone'
p3802
sI3808
S'mean'
p3803
sI3809
S'inserts'
p3804
sI3810
S'billion'
p3805
sI3811
S'principles'
p3806
sI3812
S'milan'
p3807
sI3813
S'taught'
p3808
sI3814
S'trading'
p3809
sI3815
S'caustic'
p3810
sI3816
S'navy'
p3811
sI3817
S'lawyers'
p3812
sI3818
S'dawn'
p3813
sI3819
S'extract'
p3814
sI3820
S'videotape'
p3815
sI3821
S'restricted'
p3816
sI3822
S'crucial'
p3817
sI3823
S'content'
p3818
sI3824
S'p._t._a.'
p3819
sI3825
S'debit'
p3820
sI3826
S'surprise'
p3821
sI3827
S'turning'
p3822
sI3828
S'revenge'
p3823
sI3829
S'struggle'
p3824
sI3830
S'aisle'
p3825
sI3831
S'starts'
p3826
sI3832
S'messages'
p3827
sI3833
S'swiping'
p3828
sI3834
S'liquids'
p3829
sI3835
S'loud'
p3830
sI3836
S'features'
p3831
sI3837
S'grade'
p3832
sI3838
S'hook'
p3833
sI3839
S'floors'
p3834
sI3840
S'ditch'
p3835
sI3841
S'hood'
p3836
sI3842
S'girls'
p3837
sI3843
S'twisted'
p3838
sI3844
S'boating'
p3839
sI3845
S'2'
sI3846
S'witnessing'
p3840
sI3847
S'dwell'
p3841
sI3848
S'hollywood'
p3842
sI3849
S'bouncing'
p3843
sI3850
S'gym'
p3844
sI3851
S'somewhat'
p3845
sI3852
S'helen'
p3846
sI3853
S'symptom'
p3847
sI3854
S'begins'
p3848
sI3855
S'preacher'
p3849
sI3856
S"here's"
p3850
sI3857
S'disciplined'
p3851
sI3858
S'enabled'
p3852
sI3859
S'matter'
p3853
sI3860
S'street'
p3854
sI3861
S'silly'
p3855
sI3862
S'spoiled'
p3856
sI3863
S'evaporated'
p3857
sI3864
S'limbaugh'
p3858
sI3865
S'sees'
p3859
sI3866
S'rattle'
p3860
sI3867
S'mind'
p3861
sI3868
S'mine'
p3862
sI3869
S'ginger'
p3863
sI3870
S'seed'
p3864
sI3871
S'seen'
p3865
sI3872
S'seem'
p3866
sI3873
S'obviously'
p3867
sI3874
S'seek'
p3868
sI3875
S'tells'
p3869
sI3876
S'tweezers'
p3870
sI3877
S'g._o._p.'
p3871
sI3878
S'chest'
p3872
sI3879
S'chess'
p3873
sI3880
S'quarterback'
p3874
sI3881
S'wrists'
p3875
sI3882
S'mashed'
p3876
sI3883
S'regular'
p3877
sI3884
S'zealand'
p3878
sI3885
S'don'
p3879
sI3886
S'observation'
p3880
sI3887
S'dom'
p3881
sI3888
S'mushy'
p3882
sI3889
S'medical'
p3883
sI3890
S'nighttime'
p3884
sI3891
S'dog'
p3885
sI3892
S'definitely'
p3886
sI3893
S'principle'
p3887
sI3894
S'consumer'
p3888
sI3895
S'annoyed'
p3889
sI3896
S'dot'
p3890
sI3897
S'headstone'
p3891
sI3898
S'ending'
p3892
sI3899
S'poison'
p3893
sI3900
S'stepping'
p3894
sI3901
S'explain'
p3895
sI3902
S'folded'
p3896
sI3903
S'sugar'
p3897
sI3904
S'judged'
p3898
sI3905
S'folks'
p3899
sI3906
S'wearing'
p3900
sI3907
S'monica'
p3901
sI3908
S'reconstruction'
p3902
sI3909
S'stop'
p3903
sI3910
S'appetizer'
p3904
sI3911
S'meditate'
p3905
sI3912
S'bat'
p3906
sI3913
S'bar'
p3907
sI3914
S'facilitators'
p3908
sI3915
S'bay'
p3909
sI3916
S'bag'
p3910
sI3917
S'bad'
p3911
sI3918
S'softly'
p3912
sI3919
S'ban'
p3913
sI3920
S'fertility'
p3914
sI3921
S'ears'
p3915
sI3922
S'headed'
p3916
sI3923
S'ethical'
p3917
sI3924
S'decides'
p3918
sI3925
S'fascinating'
p3919
sI3926
S'imitate'
p3920
sI3927
S'fluffy'
p3921
sI3928
S'testing'
p3922
sI3929
S'decided'
p3923
sI3930
S'interruptions'
p3924
sI3931
S'subject'
p3925
sI3932
S'lancaster'
p3926
sI3933
S'voyage'
p3927
sI3934
S'said'
p3928
sI3935
S"there'd"
p3929
sI3936
S'inappropriate'
p3930
sI3937
S'shaved'
p3931
sI3938
S'prince'
p3932
sI3939
S"there's"
p3933
sI3940
S'pets'
p3934
sI3941
S'sorts'
p3935
sI3942
S'tolerance'
p3936
sI3943
S'warrior'
p3937
sI3944
S'lazy'
p3938
sI3945
S'wears'
p3939
sI3946
S'dumber'
p3940
sI3947
S'vitamin'
p3941
sI3948
S'lotion'
p3942
sI3949
S'cousin'
p3943
sI3950
S'picking'
p3944
sI3951
S'compton'
p3945
sI3952
S'against'
p3946
sI3953
S'scuba'
p3947
sI3954
S'hardworking'
p3948
sI3955
S'coconut'
p3949
sI3956
S'height'
p3950
sI3957
S'drilled'
p3951
sI3958
S'loaded'
p3952
sI3959
S'abdominal'
p3953
sI3960
S'puts'
p3954
sI3961
S'basis'
p3955
sI3962
S'three'
p3956
sI3963
S'tiny'
p3957
sI3964
S'commission'
p3958
sI3965
S'trigger'
p3959
sI3966
S'interest'
p3960
sI3967
S'basic'
p3961
sI3968
S'lovely'
p3962
sI3969
S'threw'
p3963
sI3970
S'website'
p3964
sI3971
S'fluttering'
p3965
sI3972
S'mushroom'
p3966
sI3973
S'personally'
p3967
sI3974
S'censored'
p3968
sI3975
S'exception'
p3969
sI3976
S'tank'
p3970
sI3977
S'tastes'
p3971
sI3978
S'transformation'
p3972
sI3979
S'ugly'
p3973
sI3980
S'near'
p3974
sI3981
S'melted'
p3975
sI3982
S'suppose'
p3976
sI3983
S'balance'
p3977
sI3984
S'employees'
p3978
sI3985
S'chilling'
p3979
sI3986
S'seven'
p3980
sI3987
S'mexico'
p3981
sI3988
S'diaphragm'
p3982
sI3989
S'is'
p3983
sI3990
S'it'
p3984
sI3991
S'shame'
p3985
sI3992
S'cans'
p3986
sI3993
S'in'
p3987
sI3994
S'mouse'
p3988
sI3995
S'disappear'
p3989
sI3996
S'if'
p3990
sI3997
S'grown'
p3991
sI3998
S'bottles'
p3992
sI3999
S'specialization'
p3993
sI4000
S'cools'
p3994
sI4001
S'make'
p3995
sI4002
S"everybody's"
p3996
sI4003
S'stickier'
p3997
sI4004
S'potentially'
p3998
sI4005
S'belly'
p3999
sI4006
S'unfortunate'
p4000
sI4007
S'vegetable'
p4001
sI4008
S'shoveling'
p4002
sI4009
S'grows'
p4003
sI4010
S'sacramento'
p4004
sI4011
S'garlic'
p4005
sI4012
S'bloomberg'
p4006
sI4013
S'i.'
p4007
sI4014
S'opportunity'
p4008
sI4015
S"he'll"
p4009
sI4016
S'thoughts'
p4010
sI4017
S'kid'
p4011
sI4018
S'butter'
p4012
sI4019
S'practiced'
p4013
sI4020
S'smokey'
p4014
sI4021
S'programs'
p4015
sI4022
S'settled'
p4016
sI4023
S'smokes'
p4017
sI4024
S'smoker'
p4018
sI4025
S'materials'
p4019
sI4026
S'tombstone'
p4020
sI4027
S'qualities'
p4021
sI4028
S'smoked'
p4022
sI4029
S'investments'
p4023
sI4030
S'left'
p4024
sI4031
S'just'
p4025
sI4032
S'sentence'
p4026
sI4033
S'yea'
p4027
sI4034
S'unfair'
p4028
sI4035
S'identify'
p4029
sI4036
S'fullness'
p4030
sI4037
S'facts'
p4031
sI4038
S'yep'
p4032
sI4039
S'yes'
p4033
sI4040
S'yet'
p4034
sI4041
S'candidate'
p4035
sI4042
S'character'
p4036
sI4043
S'potential'
p4037
sI4044
S'copyrights'
p4038
sI4045
S'contestant'
p4039
sI4046
S'save'
p4040
sI4047
S'trimming'
p4041
sI4048
S'opt'
p4042
sI4049
S'amarillo'
p4043
sI4050
S'background'
p4044
sI4051
S'destroy'
p4045
sI4052
S'feelings'
p4046
sI4053
S'dreams'
p4047
sI4054
S'vanity'
p4048
sI4055
S'shoulder'
p4049
sI4056
S'dignity'
p4050
sI4057
S'performing'
p4051
sI4058
S'manual'
p4052
sI4059
S'unnecessary'
p4053
sI4060
S'signal'
p4054
sI4061
S'dean'
p4055
sI4062
S'deal'
p4056
sI4063
S'somehow'
p4057
sI4064
S'dead'
p4058
sI4065
S"nothing's"
p4059
sI4066
S'dear'
p4060
sI4067
S'straightening'
p4061
sI4068
S'shapes'
p4062
sI4069
S'dense'
p4063
sI4070
S'tracked'
p4064
sI4071
S'electromagnetic'
p4065
sI4072
S'microwave'
p4066
sI4073
S'flounder'
p4067
sI4074
S'shakespeare'
p4068
sI4075
S'meanings'
p4069
sI4076
S'burn'
p4070
sI4077
S'popular'
p4071
sI4078
S'super'
p4072
sI4079
S'ribs'
p4073
sI4080
S'sprinklers'
p4074
sI4081
S'magazine'
p4075
sI4082
S'afternoon'
p4076
sI4083
S'commit'
p4077
sI4084
S'marshal'
p4078
sI4085
S'automatically'
p4079
sI4086
S'managers'
p4080
sI4087
S'lied'
p4081
sI4088
S'intellectual'
p4082
sI4089
S'negative'
p4083
sI4090
S'down'
p4084
sI4091
S'slurp'
p4085
sI4092
S'amazingly'
p4086
sI4093
S'flying'
p4087
sI4094
S'inspected'
p4088
sI4095
S'winters'
p4089
sI4096
S'offering'
p4090
sI4097
S'clinics'
p4091
sI4098
S'fireworks'
p4092
sI4099
S'failure'
p4093
sI4100
S'diaper'
p4094
sI4101
S'surrender'
p4095
sI4102
S'atrocities'
p4096
sI4103
S'fort'
p4097
sI4104
S'prevents'
p4098
sI4105
S'attached'
p4099
sI4106
S'bounds'
p4100
sI4107
S'whiskey'
p4101
sI4108
S'tucson'
p4102
sI4109
S'economic'
p4103
sI4110
S'daddy'
p4104
sI4111
S'delete'
p4105
sI4112
S'abusing'
p4106
sI4113
S'strengthening'
p4107
sI4114
S'sticks'
p4108
sI4115
S'classic'
p4109
sI4116
S'covers'
p4110
sI4117
S'sticky'
p4111
sI4118
S'gland'
p4112
sI4119
S'rouge'
p4113
sI4120
S'anthrax'
p4114
sI4121
S'awhile'
p4115
sI4122
S'commuting'
p4116
sI4123
S'shit'
p4117
sI4124
S'generally'
p4118
sI4125
S'venison'
p4119
sI4126
S'linguistics'
p4120
sI4127
S'digital'
p4121
sI4128
S'garland'
p4122
sI4129
S'dies'
p4123
sI4130
S'felt'
p4124
sI4131
S'diet'
p4125
sI4132
S'fell'
p4126
sI4133
S'pizzas'
p4127
sI4134
S'weekend'
p4128
sI4135
S'died'
p4129
sI4136
S'jones'
p4130
sI4137
S'happening'
p4131
sI4138
S'apology'
p4132
sI4139
S'potato'
p4133
sI4140
S'pseudo'
p4134
sI4141
S'daily'
p4135
sI4142
S'jacket'
p4136
sI4143
S'u._n.'
p4137
sI4144
S'teeth'
p4138
sI4145
S'profits'
p4139
sI4146
S'managed'
p4140
sI4147
S'skip'
p4141
sI4148
S'relieve'
p4142
sI4149
S'g._p._s.'
p4143
sI4150
S'madison'
p4144
sI4151
S'laura'
p4145
sI4152
S'mild'
p4146
sI4153
S'mile'
p4147
sI4154
S'skin'
p4148
sI4155
S'mill'
p4149
sI4156
S'primer'
p4150
sI4157
S'milk'
p4151
sI4158
S'suicide'
p4152
sI4159
S'yummy'
p4153
sI4160
S'disorders'
p4154
sI4161
S'technique'
p4155
sI4162
S'father'
p4156
sI4163
S'disgusting'
p4157
sI4164
S'iraqi'
p4158
sI4165
S'finally'
p4159
sI4166
S'swoop'
p4160
sI4167
S'marks'
p4161
sI4168
S'me'
p4162
sI4169
S'innovation'
p4163
sI4170
S'pathologist'
p4164
sI4171
S'biceps'
p4165
sI4172
S'staples'
p4166
sI4173
S'banished'
p4167
sI4174
S'did'
p4168
sI4175
S'die'
p4169
sI4176
S'accidentally'
p4170
sI4177
S'keepers'
p4171
sI4178
S'magnet'
p4172
sI4179
S'item'
p4173
sI4180
S'dip'
p4174
sI4181
S'round'
p4175
sI4182
S"it'll"
p4176
sI4183
S'cetera'
p4177
sI4184
S'olympic'
p4178
sI4185
S'talked'
p4179
sI4186
S'nineties'
p4180
sI4187
S'seasoning'
p4181
sI4188
S'dealing'
p4182
sI4189
S'run'
p4183
sI4190
S'bacterial'
p4184
sI4191
S'international'
p4185
sI4192
S'filled'
p4186
sI4193
S'transportation'
p4187
sI4194
S'tibet'
p4188
sI4195
S'guardian'
p4189
sI4196
S'makeup'
p4190
sI4197
S'victimized'
p4191
sI4198
S'french'
p4192
sI4199
S'travolta'
p4193
sI4200
S'kilometers'
p4194
sI4201
S'frosting'
p4195
sI4202
S'wait'
p4196
sI4203
S'box'
p4197
sI4204
S'boy'
p4198
sI4205
S'exemplified'
p4199
sI4206
S'canadian'
p4200
sI4207
S'institute'
p4201
sI4208
S'skillings'
p4202
sI4209
S'diagnosed'
p4203
sI4210
S'suggestion'
p4204
sI4211
S'raccoon'
p4205
sI4212
S'bob'
p4206
sI4213
S'nylon'
p4207
sI4214
S'genuinely'
p4208
sI4215
S'teenage'
p4209
sI4216
S'adjustable'
p4210
sI4217
S'useful'
p4211
sI4218
S'flexibility'
p4212
sI4219
S'everybody'
p4213
sI4220
S'additive'
p4214
sI4221
S'troops'
p4215
sI4222
S'sharper'
p4216
sI4223
S'sake'
p4217
sI4224
S'dude'
p4218
sI4225
S'france'
p4219
sI4226
S'scenarios'
p4220
sI4227
S'creamy'
p4221
sI4228
S'blotchy'
p4222
sI4229
S'sharing'
p4223
sI4230
S'parks'
p4224
sI4231
S'freestyle'
p4225
sI4232
S'phillies'
p4226
sI4233
S'ooh'
p4227
sI4234
S'downtown'
p4228
sI4235
S'savior'
p4229
sI4236
S'olive'
p4230
sI4237
S'effort'
p4231
sI4238
S'capturing'
p4232
sI4239
S'fly'
p4233
sI4240
S'deformed'
p4234
sI4241
S'soul'
p4235
sI4242
S'reviews'
p4236
sI4243
S'soup'
p4237
sI4244
S'sour'
p4238
sI4245
S'growing'
p4239
sI4246
S'making'
p4240
sI4247
S'arrive'
p4241
sI4248
S'nearest'
p4242
sI4249
S'classrooms'
p4243
sI4250
S'grouchy'
p4244
sI4251
S'lobbying'
p4245
sI4252
S'agent'
p4246
sI4253
S'sample'
p4247
sI4254
S'drawer'
p4248
sI4255
S'subconsciously'
p4249
sI4256
S'pink'
p4250
sI4257
S'pine'
p4251
sI4258
S'chemical'
p4252
sI4259
S'till'
p4253
sI4260
S'sunday'
p4254
sI4261
S'pure'
p4255
sI4262
S'skates'
p4256
sI4263
S'pins'
p4257
sI4264
S'map'
p4258
sI4265
S'staying'
p4259
sI4266
S'designer'
p4260
sI4267
S'mat'
p4261
sI4268
S'may'
p4262
sI4269
S'max'
p4263
sI4270
S'sustainability'
p4264
sI4271
S'mac'
p4265
sI4272
S'mad'
p4266
sI4273
S'destructive'
p4267
sI4274
S'guys'
p4268
sI4275
S'grow'
p4269
sI4276
S'pressuring'
p4270
sI4277
S'man'
p4271
sI4278
S'neck'
p4272
sI4279
S'johnson'
p4273
sI4280
S'maybe'
p4274
sI4281
S'purify'
p4275
sI4282
S'cascade'
p4276
sI4283
S'switch'
p4277
sI4284
S'jail'
p4278
sI4285
S'deposit'
p4279
sI4286
S'african'
p4280
sI4287
S'basket'
p4281
sI4288
S'tall'
p4282
sI4289
S'talk'
p4283
sI4290
S'cute'
p4284
sI4291
S'shoes'
p4285
sI4292
S'rabbi'
p4286
sI4293
S'pointed'
p4287
sI4294
S'stability'
p4288
sI4295
S'salmonella'
p4289
sI4296
S'shake'
p4290
sI4297
S'marshmallows'
p4291
sI4298
S'pointer'
p4292
sI4299
S'group'
p4293
sI4300
S'thank'
p4294
sI4301
S'interesting'
p4295
sI4302
S'policy'
p4296
sI4303
S'mail'
p4297
sI4304
S'main'
p4298
sI4305
S'texas'
p4299
sI4306
S'finance'
p4300
sI4307
S'tropicana'
p4301
sI4308
S'tofu'
p4302
sI4309
S'killer'
p4303
sI4310
S'christening'
p4304
sI4311
S'sooner'
p4305
sI4312
S'lunch'
p4306
sI4313
S'touching'
p4307
sI4314
S'markings'
p4308
sI4315
S'killed'
p4309
sI4316
S'peasant'
p4310
sI4317
S'offshore'
p4311
sI4318
S'rock'
p4312
sI4319
S'unlock'
p4313
sI4320
S'fingertips'
p4314
sI4321
S'girl'
p4315
sI4322
S'summary'
p4316
sI4323
S'canada'
p4317
sI4324
S'living'
p4318
sI4325
S'jackson'
p4319
sI4326
S'miles'
p4320
sI4327
S'alison'
p4321
sI4328
S'correct'
p4322
sI4329
S'earlier'
p4323
sI4330
S'bombs'
p4324
sI4331
S'sideways'
p4325
sI4332
S'mechanisms'
p4326
sI4333
S'pumping'
p4327
sI4334
S'romans'
p4328
sI4335
S'california'
p4329
sI4336
S'ajar'
p4330
sI4337
S'customs'
p4331
sI4338
S'advance'
p4332
sI4339
S'underwear'
p4333
sI4340
S'language'
p4334
sI4341
S'ministry'
p4335
sI4342
S'surgeries'
p4336
sI4343
S'headphones'
p4337
sI4344
S'thing'
p4338
sI4345
S'funky'
p4339
sI4346
S'think'
p4340
sI4347
S'waited'
p4341
sI4348
S'first'
p4342
sI4349
S'cheese'
p4343
sI4350
S'pillsbury'
p4344
sI4351
S'americans'
p4345
sI4352
S'long'
p4346
sI4353
S'carry'
p4347
sI4354
S'sounds'
p4348
sI4355
S'rome'
p4349
sI4356
S'little'
p4350
sI4357
S'anyone'
p4351
sI4358
S'moisture'
p4352
sI4359
S'participated'
p4353
sI4360
S'speaking'
p4354
sI4361
S'prettier'
p4355
sI4362
S'eyes'
p4356
sI4363
S'continuous'
p4357
sI4364
S'infiltrate'
p4358
sI4365
S'11'
p4359
sI4366
S'cracks'
p4360
sI4367
S'sailing'
p4361
sI4368
S'gotta'
p4362
sI4369
S'were'
p4363
sI4370
S'gathering'
p4364
sI4371
S'lick'
p4365
sI4372
S'topics'
p4366
sI4373
S'marijuana'
p4367
sI4374
S'dash'
p4368
sI4375
S'conspiracy'
p4369
sI4376
S'comedian'
p4370
sI4377
S'pastry'
p4371
sI4378
S'occupied'
p4372
sI4379
S'kevin'
p4373
sI4380
S'warsaw'
p4374
sI4381
S'speakers'
p4375
sI4382
S'answering'
p4376
sI4383
S'isolate'
p4377
sI4384
S'shocked'
p4378
sI4385
S'squad'
p4379
sI4386
S'performance'
p4380
sI4387
S'personalized'
p4381
sI4388
S'channel'
p4382
sI4389
S'jungle'
p4383
sI4390
S'pain'
p4384
sI4391
S'normal'
p4385
sI4392
S'track'
p4386
sI4393
S'cheesecake'
p4387
sI4394
S'incidence'
p4388
sI4395
S'paid'
p4389
sI4396
S'nolan'
p4390
sI4397
S'sheets'
p4391
sI4398
S'bowels'
p4392
sI4399
S'queens'
p4393
sI4400
S'especially'
p4394
sI4401
S'refunds'
p4395
sI4402
S'larry'
p4396
sI4403
S'shop'
p4397
sI4404
S'shot'
p4398
sI4405
S'show'
p4399
sI4406
S'kwon'
p4400
sI4407
S'therapist'
p4401
sI4408
S'shoe'
p4402
sI4409
S'corner'
p4403
sI4410
S'curled'
p4404
sI4411
S'treasure'
p4405
sI4412
S'behind'
p4406
sI4413
S'either'
p4407
sI4414
S'black'
p4408
sI4415
S'awareness'
p4409
sI4416
S'get'
p4410
sI4417
S'contracts'
p4411
sI4418
S'marlborough'
p4412
sI4419
S'reps'
p4413
sI4420
S'nearly'
p4414
sI4421
S'gee'
p4415
sI4422
S'teens'
p4416
sI4423
S'secondary'
p4417
sI4424
S'bearings'
p4418
sI4425
S'morning'
p4419
sI4426
S'stupid'
p4420
sI4427
S'finishing'
p4421
sI4428
S'honesty'
p4422
sI4429
S'eighteenth'
p4423
sI4430
S'relative'
p4424
sI4431
S'sean'
p4425
sI4432
S'eliminating'
p4426
sI4433
S'seal'
p4427
sI4434
S'calendar'
p4428
sI4435
S'wonder'
p4429
sI4436
S'indicted'
p4430
sI4437
S'camping'
p4431
sI4438
S'machetes'
p4432
sI4439
S'mayor'
p4433
sI4440
S'whereabouts'
p4434
sI4441
S'enough'
p4435
sI4442
S'geometric'
p4436
sI4443
S'reading'
p4437
sI4444
S'across'
p4438
sI4445
S'affordable'
p4439
sI4446
S'august'
p4440
sI4447
S'parent'
p4441
sI4448
S'parental'
p4442
sI4449
S'killing'
p4443
sI4450
S"australia's"
p4444
sI4451
S'cervical'
p4445
sI4452
S'dates'
p4446
sI4453
S'fried'
p4447
sI4454
S'rugby'
p4448
sI4455
S'chelsea'
p4449
sI4456
S'according'
p4450
sI4457
S'tour'
p4451
sI4458
S'patrons'
p4452
sI4459
S'dated'
p4453
sI4460
S'traded'
p4454
sI4461
S'among'
p4455
sI4462
S'cancer'
p4456
sI4463
S'venues'
p4457
sI4464
S'innovations'
p4458
sI4465
S'pleases'
p4459
sI4466
S'grants'
p4460
sI4467
S'spans'
p4461
sI4468
S'freak'
p4462
sI4469
S'comprehend'
p4463
sI4470
S'considering'
p4464
sI4471
S'arts'
p4465
sI4472
S'capable'
p4466
sI4473
S'mark'
p4467
sI4474
S'attaching'
p4468
sI4475
S'dependable'
p4469
sI4476
S'wobbly'
p4470
sI4477
S'acre'
p4471
sI4478
S'mary'
p4472
sI4479
S'shopping'
p4473
sI4480
S'offered'
p4474
sI4481
S'laptops'
p4475
sI4482
S'dramatic'
p4476
sI4483
S'wake'
p4477
sI4484
S'declaration'
p4478
sI4485
S'captivity'
p4479
sI4486
S'sound'
p4480
sI4487
S'disconnected'
p4481
sI4488
S'turtles'
p4482
sI4489
S'promising'
p4483
sI4490
S'cancelled'
p4484
sI4491
S'margin'
p4485
sI4492
S'ulysses'
p4486
sI4493
S'eventually'
p4487
sI4494
S'characteristics'
p4488
sI4495
S'sincere'
p4489
sI4496
S'coffee'
p4490
sI4497
S'sleeping'
p4491
sI4498
S'middle'
p4492
sI4499
S'illustrates'
p4493
sI4500
S'protein'
p4494
sI4501
S'macadamia'
p4495
sI4502
S'everyday'
p4496
sI4503
S'movements'
p4497
sI4504
S'pap'
p4498
sI4505
S'bags'
p4499
sI4506
S'different'
p4500
sI4507
S'doctor'
p4501
sI4508
S'pay'
p4502
sI4509
S'same'
p4503
sI4510
S'speech'
p4504
sI4511
S'aerobics'
p4505
sI4512
S'struggling'
p4506
sI4513
S'pan'
p4507
sI4514
S'exhaust'
p4508
sI4515
S'oil'
p4509
sI4516
S'running'
p4510
sI4517
S'stairwell'
p4511
sI4518
S'climbing'
p4512
sI4519
S'totally'
p4513
sI4520
S'drain'
p4514
sI4521
S'largely'
p4515
sI4522
S'roughly'
p4516
sI4523
S'fridays'
p4517
sI4524
S'spoonful'
p4518
sI4525
S'solve'
p4519
sI4526
S'bottle'
p4520
sI4527
S'bumping'
p4521
sI4528
S'cameramen'
p4522
sI4529
S'outdoor'
p4523
sI4530
S'gangs'
p4524
sI4531
S'money'
p4525
sI4532
S"professor's"
p4526
sI4533
S'aspect'
p4527
sI4534
S'flavor'
p4528
sI4535
S'asthma'
p4529
sI4536
S'pups'
p4530
sI4537
S'o._b.'
p4531
sI4538
S'pile'
p4532
sI4539
S'4'
sI4540
S'heavier'
p4533
sI4541
S'pill'
p4534
sI4542
S'grip'
p4535
sI4543
S'jake'
p4536
sI4544
S'admitting'
p4537
sI4545
S'mom'
p4538
sI4546
S'disappointed'
p4539
sI4547
S'terrorize'
p4540
sI4548
S'christine'
p4541
sI4549
S'nosy'
p4542
sI4550
S'homosexuality'
p4543
sI4551
S'lightning'
p4544
sI4552
S'facing'
p4545
sI4553
S'audience'
p4546
sI4554
S'miraculous'
p4547
sI4555
S'laughing'
p4548
sI4556
S"market's"
p4549
sI4557
S'drainage'
p4550
sI4558
S'served'
p4551
sI4559
S'voluntarily'
p4552
sI4560
S'passionate'
p4553
sI4561
S'robbers'
p4554
sI4562
S'jews'
p4555
sI4563
S'doll'
p4556
sI4564
S'pronounce'
p4557
sI4565
S'images'
p4558
sI4566
S'matching'
p4559
sI4567
S'generates'
p4560
sI4568
S'gross'
p4561
sI4569
S'outs'
p4562
sI4570
S'lotta'
p4563
sI4571
S'confirm'
p4564
sI4572
S'fluids'
p4565
sI4573
S'ellie'
p4566
sI4574
S'critical'
p4567
sI4575
S'expressing'
p4568
sI4576
S'claustrophobic'
p4569
sI4577
S'moderate'
p4570
sI4578
S'knife'
p4571
sI4579
S'oldfield'
p4572
sI4580
S'measuring'
p4573
sI4581
S'seconds'
p4574
sI4582
S'fitness'
p4575
sI4583
S'unusual'
p4576
sI4584
S'broken'
p4577
sI4585
S'pretended'
p4578
sI4586
S'drums'
p4579
sI4587
S'manufacturer'
p4580
sI4588
S'stations'
p4581
sI4589
S'island'
p4582
sI4590
S'fringe'
p4583
sI4591
S'bonding'
p4584
sI4592
S'mixer'
p4585
sI4593
S'mixes'
p4586
sI4594
S'practical'
p4587
sI4595
S'airline'
p4588
sI4596
S'pockets'
p4589
sI4597
S'mounting'
p4590
sI4598
S'mixed'
p4591
sI4599
S'road'
p4592
sI4600
S'quietly'
p4593
sI4601
S'fertile'
p4594
sI4602
S'whites'
p4595
sI4603
S'spreading'
p4596
sI4604
S'skilled'
p4597
sI4605
S'blessed'
p4598
sI4606
S'strip'
p4599
sI4607
S'skillet'
p4600
sI4608
S'shells'
p4601
sI4609
S'distracted'
p4602
sI4610
S'lions'
p4603
sI4611
S'hysterical'
p4604
sI4612
S'mornings'
p4605
sI4613
S'gory'
p4606
sI4614
S'stressors'
p4607
sI4615
S'strikes'
p4608
sI4616
S'sophisticated'
p4609
sI4617
S'staircases'
p4610
sI4618
S'downstairs'
p4611
sI4619
S'spice'
p4612
sI4620
S'arranged'
p4613
sI4621
S"wasn't"
p4614
sI4622
S'drills'
p4615
sI4623
S'strawberry'
p4616
sI4624
S'netting'
p4617
sI4625
S'powerless'
p4618
sI4626
S'videos'
p4619
sI4627
S'geriatric'
p4620
sI4628
S'censor'
p4621
sI4629
S'deep'
p4622
sI4630
S'general'
p4623
sI4631
S'imagination'
p4624
sI4632
S'file'
p4625
sI4633
S'girlfriend'
p4626
sI4634
S'lifetime'
p4627
sI4635
S'hound'
p4628
sI4636
S'cables'
p4629
sI4637
S'film'
p4630
sI4638
S'fill'
p4631
sI4639
S'again'
p4632
sI4640
S'drivers'
p4633
sI4641
S'hybrid'
p4634
sI4642
S'field'
p4635
sI4643
S'attaining'
p4636
sI4644
S'rollerblading'
p4637
sI4645
S'students'
p4638
sI4646
S'important'
p4639
sI4647
S'chris'
p4640
sI4648
S'decorated'
p4641
sI4649
S'remote'
p4642
sI4650
S'tightened'
p4643
sI4651
S'resembles'
p4644
sI4652
S'alright'
p4645
sI4653
S'starting'
p4646
sI4654
S'represent'
p4647
sI4655
S'pheasant'
p4648
sI4656
S'forget'
p4649
sI4657
S'diesel'
p4650
sI4658
S'allergy'
p4651
sI4659
S'dollar'
p4652
sI4660
S'founded'
p4653
sI4661
S'commute'
p4654
sI4662
S'talks'
p4655
sI4663
S'implement'
p4656
sI4664
S'children'
p4657
sI4665
S'those'
p4658
sI4666
S'overdoing'
p4659
sI4667
S'enjoying'
p4660
sI4668
S'turnips'
p4661
sI4669
S'straightforward'
p4662
sI4670
S'returning'
p4663
sI4671
S'scout'
p4664
sI4672
S'bleach'
p4665
sI4673
S'difference'
p4666
sI4674
S'washing'
p4667
sI4675
S'mothers'
p4668
sI4676
S"water's"
p4669
sI4677
S'worded'
p4670
sI4678
S'biological'
p4671
sI4679
S'neighborhood'
p4672
sI4680
S'straighten'
p4673
sI4681
S'burger'
p4674
sI4682
S'zero'
p4675
sI4683
S'titles'
p4676
sI4684
S'perspective'
p4677
sI4685
S'further'
p4678
sI4686
S'ribbon'
p4679
sI4687
S'cigars'
p4680
sI4688
S'dial'
p4681
sI4689
S'defence'
p4682
sI4690
S'stood'
p4683
sI4691
S'caffeine'
p4684
sI4692
S'abs'
p4685
sI4693
S'everlasting'
p4686
sI4694
S'public'
p4687
sI4695
S'movement'
p4688
sI4696
S"c'mon"
p4689
sI4697
S'component'
p4690
sI4698
S"nation's"
p4691
sI4699
S'operating'
p4692
sI4700
S'commercially'
p4693
sI4701
S'bakeries'
p4694
sI4702
S'speeches'
p4695
sI4703
S'bible'
p4696
sI4704
S'stretching'
p4697
sI4705
S'jackie'
p4698
sI4706
S"j.'s"
p4699
sI4707
S'published'
p4700
sI4708
S'narrow'
p4701
sI4709
S'buses'
p4702
sI4710
S'transit'
p4703
sI4711
S'africa'
p4704
sI4712
S"sister's"
p4705
sI4713
S'suits'
p4706
sI4714
S'establish'
p4707
sI4715
S'carnivals'
p4708
sI4716
S'eye'
p4709
sI4717
S'wiped'
p4710
sI4718
S'destination'
p4711
sI4719
S'two'
p4712
sI4720
S'comparing'
p4713
sI4721
S'tacky'
p4714
sI4722
S'wiper'
p4715
sI4723
S'rubbing'
p4716
sI4724
S'purse'
p4717
sI4725
S"family's"
p4718
sI4726
S'admissions'
p4719
sI4727
S'landed'
p4720
sI4728
S'gentleman'
p4721
sI4729
S"ain't"
p4722
sI4730
S'particular'
p4723
sI4731
S'bye-bye'
p4724
sI4732
S'nineteen'
p4725
sI4733
S'town'
p4726
sI4734
S'none'
p4727
sI4735
S'hour'
p4728
sI4736
S'strain'
p4729
sI4737
S'recall'
p4730
sI4738
S'sucks'
p4731
sI4739
S'intercepted'
p4732
sI4740
S'dew'
p4733
sI4741
S'remain'
p4734
sI4742
S'superstitions'
p4735
sI4743
S'abandon'
p4736
sI4744
S'stubborn'
p4737
sI4745
S'compare'
p4738
sI4746
S'ritual'
p4739
sI4747
S'share'
p4740
sI4748
S'sphere'
p4741
sI4749
S'minimum'
p4742
sI4750
S'rainstorm'
p4743
sI4751
S'numbers'
p4744
sI4752
S'purchased'
p4745
sI4753
S'sharp'
p4746
sI4754
S'biography'
p4747
sI4755
S'needs'
p4748
sI4756
S'awkward'
p4749
sI4757
S'demolition'
p4750
sI4758
S'rye'
p4751
sI4759
S'sacred'
p4752
sI4760
S'stir'
p4753
sI4761
S'smokers'
p4754
sI4762
S'lakes'
p4755
sI4763
S'charms'
p4756
sI4764
S'advice'
p4757
sI4765
S'blood'
p4758
sI4766
S'faculty'
p4759
sI4767
S'bloom'
p4760
sI4768
S'response'
p4761
sI4769
S'crowded'
p4762
sI4770
S"that'd"
p4763
sI4771
S'coat'
p4764
sI4772
S'electron'
p4765
sI4773
S'dragon'
p4766
sI4774
S'coal'
p4767
sI4775
S'solidify'
p4768
sI4776
S'responsibility'
p4769
sI4777
S'methadone'
p4770
sI4778
S'pleasure'
p4771
sI4779
S'playing'
p4772
sI4780
S"that's"
p4773
sI4781
S'rounded'
p4774
sI4782
S'appeals'
p4775
sI4783
S'through'
p4776
sI4784
S'filters'
p4777
sI4785
S'existence'
p4778
sI4786
S'suffer'
p4779
sI4787
S'arrogant'
p4780
sI4788
S'golfing'
p4781
sI4789
S'messed'
p4782
sI4790
S'arteries'
p4783
sI4791
S'20'
p4784
sI4792
S'21'
p4785
sI4793
S'possessions'
p4786
sI4794
S'23'
p4787
sI4795
S'pcs'
p4788
sI4796
S'handheld'
p4789
sI4797
S'late'
p4790
sI4798
S'dolly'
p4791
sI4799
S'pad'
p4792
sI4800
S'dolls'
p4793
sI4801
S'hurting'
p4794
sI4802
S'someone'
p4795
sI4803
S'seeking'
p4796
sI4804
S'males'
p4797
sI4805
S'socially'
p4798
sI4806
S'noticing'
p4799
sI4807
S'primary'
p4800
sI4808
S'walls'
p4801
sI4809
S'compound'
p4802
sI4810
S'complain'
p4803
sI4811
S'association'
p4804
sI4812
S'mystery'
p4805
sI4813
S'easily'
p4806
sI4814
S'pregnant'
p4807
sI4815
S'eleanor'
p4808
sI4816
S'habits'
p4809
sI4817
S'gender'
p4810
sI4818
S'biscuits'
p4811
sI4819
S'harm'
p4812
sI4820
S'everyone'
p4813
sI4821
S'mental'
p4814
sI4822
S'house'
p4815
sI4823
S'energy'
p4816
sI4824
S'hard'
p4817
sI4825
S'idea'
p4818
sI4826
S'sober'
p4819
sI4827
S'extended'
p4820
sI4828
S'k._f._i.'
p4821
sI4829
S'connect'
p4822
sI4830
S'insurance'
p4823
sI4831
S'lovers'
p4824
sI4832
S'funding'
p4825
sI4833
S'discouraging'
p4826
sI4834
S'acting'
p4827
sI4835
S"they'll"
p4828
sI4836
S'print'
p4829
sI4837
S'bully'
p4830
sI4838
S'bulls'
p4831
sI4839
S'geared'
p4832
sI4840
S'extraordinary'
p4833
sI4841
S'members'
p4834
sI4842
S'backed'
p4835
sI4843
S'beginning'
p4836
sI4844
S'benefits'
p4837
sI4845
S'needing'
p4838
sI4846
S'finches'
p4839
sI4847
S'audacity'
p4840
sI4848
S'pilots'
p4841
sI4849
S'reinforced'
p4842
sI4850
S'm._r._i.'
p4843
sI4851
S'instances'
p4844
sI4852
S'done'
p4845
sI4853
S'elevator'
p4846
sI4854
S'cups'
p4847
sI4855
S'razor'
p4848
sI4856
S'twenty'
p4849
sI4857
S'least'
p4850
sI4858
S'militant'
p4851
sI4859
S'paint'
p4852
sI4860
S'leash'
p4853
sI4861
S'statement'
p4854
sI4862
S'mama'
p4855
sI4863
S'rates'
p4856
sI4864
S'compartment'
p4857
sI4865
S'smoothed'
p4858
sI4866
S'lease'
p4859
sI4867
S'bumble'
p4860
sI4868
S'muscles'
p4861
sI4869
S'needle'
p4862
sI4870
S'park'
p4863
sI4871
S'part'
p4864
sI4872
S'doctors'
p4865
sI4873
S'believe'
p4866
sI4874
S'compliments'
p4867
sI4875
S'incision'
p4868
sI4876
S'gotten'
p4869
sI4877
S'recording'
p4870
sI4878
S'contrary'
p4871
sI4879
S'supposed'
p4872
sI4880
S'treated'
p4873
sI4881
S'declare'
p4874
sI4882
S'outta'
p4875
sI4883
S'curtains'
p4876
sI4884
S'ages'
p4877
sI4885
S'showers'
p4878
sI4886
S'confirms'
p4879
sI4887
S'orders'
p4880
sI4888
S'mountain'
p4881
sI4889
S'rower'
p4882
sI4890
S'built'
p4883
sI4891
S'dancing'
p4884
sI4892
S'k.'
p4885
sI4893
S'couch'
p4886
sI4894
S'majority'
p4887
sI4895
S'build'
p4888
sI4896
S'serene'
p4889
sI4897
S'godfather'
p4890
sI4898
S'serve'
p4891
sI4899
S'eggs'
p4892
sI4900
S'salmon'
p4893
sI4901
S'chart'
p4894
sI4902
S'most'
p4895
sI4903
S'services'
p4896
sI4904
S'extremely'
p4897
sI4905
S'refrigerator'
p4898
sI4906
S'peasy'
p4899
sI4907
S'flovent'
p4900
sI4908
S'weigh'
p4901
sI4909
S'joining'
p4902
sI4910
S'thomas'
p4903
sI4911
S'particularly'
p4904
sI4912
S'wailing'
p4905
sI4913
S'relation'
p4906
sI4914
S'co-operative'
p4907
sI4915
S'carefully'
p4908
sI4916
S'headlines'
p4909
sI4917
S'headliner'
p4910
sI4918
S'fine'
p4911
sI4919
S'find'
p4912
sI4920
S'giant'
p4913
sI4921
S'fluffier'
p4914
sI4922
S'ruin'
p4915
sI4923
S'distributed'
p4916
sI4924
S'unhappy'
p4917
sI4925
S'freedoms'
p4918
sI4926
S'idiots'
p4919
sI4927
S'8'
sI4928
S'permission'
p4920
sI4929
S'capital'
p4921
sI4930
S'luka'
p4922
sI4931
S'cheaper'
p4923
sI4932
S'batter'
p4924
sI4933
S'breast'
p4925
sI4934
S'theft'
p4926
sI4935
S'silk'
p4927
sI4936
S'resolve'
p4928
sI4937
S'recycled'
p4929
sI4938
S'pissing'
p4930
sI4939
S'remove'
p4931
sI4940
S'common'
p4932
sI4941
S'restaurants'
p4933
sI4942
S'pneumatic'
p4934
sI4943
S'cynical'
p4935
sI4944
S'individual'
p4936
sI4945
S'tender'
p4937
sI4946
S'acts'
p4938
sI4947
S'desires'
p4939
sI4948
S'visiting'
p4940
sI4949
S'please'
p4941
sI4950
S'fans'
p4942
sI4951
S'smallest'
p4943
sI4952
S'burned'
p4944
sI4953
S'champagne'
p4945
sI4954
S'mailbox'
p4946
sI4955
S'aircraft'
p4947
sI4956
S'premise'
p4948
sI4957
S'pissed'
p4949
sI4958
S'rashes'
p4950
sI4959
S'reverse'
p4951
sI4960
S'restaurant'
p4952
sI4961
S'annual'
p4953
sI4962
S'foreign'
p4954
sI4963
S'geniuses'
p4955
sI4964
S'baltimore'
p4956
sI4965
S'cakes'
p4957
sI4966
S'supply'
p4958
sI4967
S'simple'
p4959
sI4968
S'recycling'
p4960
sI4969
S'newborn'
p4961
sI4970
S'dances'
p4962
sI4971
S'dancer'
p4963
sI4972
S'simply'
p4964
sI4973
S'throughout'
p4965
sI4974
S'expensive'
p4966
sI4975
S'headaches'
p4967
sI4976
S'consuming'
p4968
sI4977
S'raise'
p4969
sI4978
S'apostle'
p4970
sI4979
S'create'
p4971
sI4980
S'creativity'
p4972
sI4981
S'screened'
p4973
sI4982
S'secret'
p4974
sI4983
S'dropping'
p4975
sI4984
S'peppers'
p4976
sI4985
S'meeting'
p4977
sI4986
S'blankets'
p4978
sI4987
S'gay'
p4979
sI4988
S'gas'
p4980
sI4989
S'understand'
p4981
sI4990
S'prices'
p4982
sI4991
S'replaces'
p4983
sI4992
S'solid'
p4984
sI4993
S'p._i._n.'
p4985
sI4994
S'tolerate'
p4986
sI4995
S'elections'
p4987
sI4996
S'tiered'
p4988
sI4997
S'sexuality'
p4989
sI4998
S'replaced'
p4990
sI4999
S'fun'
p4991
sI5000
S'indulging'
p4992
sI5001
S'rap'
p4993
sI5002
S'century'
p4994
sI5003
S'cents'
p4995
sI5004
S'violently'
p4996
sI5005
S'encountered'
p4997
sI5006
S'decoration'
p4998
sI5007
S'itself'
p4999
sI5008
S'aches'
p5000
sI5009
S'sociologist'
p5001
sI5010
S'perpetrator'
p5002
sI5011
S'thesis'
p5003
sI5012
S'ruth'
p5004
sI5013
S'development'
p5005
sI5014
S'passwords'
p5006
sI5015
S'tupperware'
p5007
sI5016
S'keys'
p5008
sI5017
S'assignment'
p5009
sI5018
S'yesterday'
p5010
sI5019
S'desks'
p5011
sI5020
S'moment'
p5012
sI5021
S'purpose'
p5013
sI5022
S'koch'
p5014
sI5023
S'infused'
p5015
sI5024
S'task'
p5016
sI5025
S'spent'
p5017
sI5026
S'morrow'
p5018
sI5027
S'withdraw'
p5019
sI5028
S'organization'
p5020
sI5029
S'chemistry'
p5021
sI5030
S'spend'
p5022
sI5031
S'prevention'
p5023
sI5032
S'isolated'
p5024
sI5033
S'distracting'
p5025
sI5034
S'shape'
p5026
sI5035
S'openly'
p5027
sI5036
S'scrooge'
p5028
sI5037
S'alternative'
p5029
sI5038
S'injuries'
p5030
sI5039
S'discipline'
p5031
sI5040
S'icelandic'
p5032
sI5041
S'cup'
p5033
sI5042
S'hated'
p5034
sI5043
S'alternate'
p5035
sI5044
S'duct'
p5036
sI5045
S'deliberately'
p5037
sI5046
S'snap'
p5038
sI5047
S'easter'
p5039
sI5048
S'excited'
p5040
sI5049
S'hates'
p5041
sI5050
S'bin'
p5042
sI5051
S'big'
p5043
sI5052
S'rebound'
p5044
sI5053
S'matters'
p5045
sI5054
S'foreigners'
p5046
sI5055
S'bit'
p5047
sI5056
S'knock'
p5048
sI5057
S'disrepair'
p5049
sI5058
S'semi'
p5050
sI5059
S'glove'
p5051
sI5060
S'foolish'
p5052
sI5061
S'google'
p5053
sI5062
S'gardening'
p5054
sI5063
S'often'
p5055
sI5064
S'absolutely'
p5056
sI5065
S'magnificent'
p5057
sI5066
S'back'
p5058
sI5067
S'bach'
p5059
sI5068
S'strongest'
p5060
sI5069
S'mirror'
p5061
sI5070
S'candle'
p5062
sI5071
S'server'
p5063
sI5072
S'ourselves'
p5064
sI5073
S'scale'
p5065
sI5074
S'culprit'
p5066
sI5075
S'contacts'
p5067
sI5076
S'pet'
p5068
sI5077
S'affects'
p5069
sI5078
S'decision'
p5070
sI5079
S'integration'
p5071
sI5080
S'per'
p5072
sI5081
S'pen'
p5073
sI5082
S'verbally'
p5074
sI5083
S'pee'
p5075
sI5084
S'thighs'
p5076
sI5085
S'patient'
p5077
sI5086
S"charleston's"
p5078
sI5087
S'continuing'
p5079
sI5088
S'costumes'
p5080
sI5089
S'piles'
p5081
sI5090
S'oatmeal'
p5082
sI5091
S'beans'
p5083
sI5092
S'obstetrician'
p5084
sI5093
S'misplaced'
p5085
sI5094
S'jimmy'
p5086
sI5095
S'invading'
p5087
sI5096
S'frames'
p5088
sI5097
S'lesson'
p5089
sI5098
S'bankruptcy'
p5090
sI5099
S'pronunciation'
p5091
sI5100
S'germans'
p5092
sI5101
S'homemade'
p5093
sI5102
S'forward'
p5094
sI5103
S'bored'
p5095
sI5104
S'conditional'
p5096
sI5105
S'airtight'
p5097
sI5106
S'invite'
p5098
sI5107
S'peers'
p5099
sI5108
S'pounder'
p5100
sI5109
S'boys'
p5101
sI5110
S'delighting'
p5102
sI5111
S'calico'
p5103
sI5112
S'directed'
p5104
sI5113
S'clips'
p5105
sI5114
S'strategize'
p5106
sI5115
S'planes'
p5107
sI5116
S"oklahoma's"
p5108
sI5117
S'constant'
p5109
sI5118
S'expedition'
p5110
sI5119
S'metal'
p5111
sI5120
S'engineering'
p5112
sI5121
S'cure'
p5113
sI5122
S'appetizing'
p5114
sI5123
S'dragging'
p5115
sI5124
S'plugged'
p5116
sI5125
S'excuses'
p5117
sI5126
S'functionality'
p5118
sI5127
S'becomes'
p5119
sI5128
S'pesticides'
p5120
sI5129
S'brushing'
p5121
sI5130
S'explaining'
p5122
sI5131
S'lena'
p5123
sI5132
S'accidental'
p5124
sI5133
S'tablespoon'
p5125
sI5134
S'papa'
p5126
sI5135
S'liners'
p5127
sI5136
S"guy's"
p5128
sI5137
S'desert'
p5129
sI5138
S'wipies'
p5130
sI5139
S'mantel'
p5131
sI5140
S'vehicles'
p5132
sI5141
S'cooked'
p5133
sI5142
S'rallies'
p5134
sI5143
S'noon'
p5135
sI5144
S'renting'
p5136
sI5145
S'jason'
p5137
sI5146
S'rabbit'
p5138
sI5147
S'groceries'
p5139
sI5148
S'vicious'
p5140
sI5149
S'golfer'
p5141
sI5150
S'compose'
p5142
sI5151
S'breached'
p5143
sI5152
S'peanut'
p5144
sI5153
S'freon'
p5145
sI5154
S'intensive'
p5146
sI5155
S'helps'
p5147
sI5156
S'maryland'
p5148
sI5157
S'ingredient'
p5149
sI5158
S'labels'
p5150
sI5159
S'dessert'
p5151
sI5160
S'putting'
p5152
sI5161
S'surgeon'
p5153
sI5162
S'entire'
p5154
sI5163
S'doggy'
p5155
sI5164
S'respectful'
p5156
sI5165
S'shock'
p5157
sI5166
S'bizarre'
p5158
sI5167
S'ovens'
p5159
sI5168
S'bleeding'
p5160
sI5169
S'crow'
p5161
sI5170
S'crop'
p5162
sI5171
S'rivers'
p5163
sI5172
S'uncomfortable'
p5164
sI5173
S'copenhagen'
p5165
sI5174
S'depression'
p5166
sI5175
S'ticketing'
p5167
sI5176
S'chicago'
p5168
sI5177
S'giving'
p5169
sI5178
S'paddle'
p5170
sI5179
S'access'
p5171
sI5180
S'exercise'
p5172
sI5181
S'body'
p5173
sI5182
S'raccoons'
p5174
sI5183
S'exchange'
p5175
sI5184
S'transporting'
p5176
sI5185
S'alhambra'
p5177
sI5186
S'bachelor'
p5178
sI5187
S'objects'
p5179
sI5188
S'healing'
p5180
sI5189
S'others'
p5181
sI5190
S'sing'
p5182
sI5191
S'safer'
p5183
sI5192
S'irritating'
p5184
sI5193
S'extreme'
p5185
sI5194
S'38'
p5186
sI5195
S'drank'
p5187
sI5196
S'alaska'
p5188
sI5197
S'climb'
p5189
sI5198
S'proof'
p5190
sI5199
S'honor'
p5191
sI5200
S'control'
p5192
sI5201
S'named'
p5193
sI5202
S'blizzard'
p5194
sI5203
S'presidents'
p5195
sI5204
S'decrease'
p5196
sI5205
S'names'
p5197
sI5206
S'scandal'
p5198
sI5207
S'staple'
p5199
sI5208
S'sermon'
p5200
sI5209
S'butler'
p5201
sI5210
S'themselves'
p5202
sI5211
S'train'
p5203
sI5212
S'arranging'
p5204
sI5213
S'tearing'
p5205
sI5214
S'account'
p5206
sI5215
S'tunnel'
p5207
sI5216
S'praise'
p5208
sI5217
S'industrial'
p5209
sI5218
S'closing'
p5210
sI5219
S'snacks'
p5211
sI5220
S'proportions'
p5212
sI5221
S'effectively'
p5213
sI5222
S'waltz'
p5214
sI5223
S'contempt'
p5215
sI5224
S'native'
p5216
sI5225
S'curving'
p5217
sI5226
S'daring'
p5218
sI5227
S'flap'
p5219
sI5228
S'lame'
p5220
sI5229
S'dinners'
p5221
sI5230
S'boxing'
p5222
sI5231
S'hampshire'
p5223
sI5232
S'attachment'
p5224
sI5233
S'feta'
p5225
sI5234
S'stock'
p5226
sI5235
S'buildings'
p5227
sI5236
S'philosophy'
p5228
sI5237
S'collection'
p5229
sI5238
S'prostate'
p5230
sI5239
S'chasing'
p5231
sI5240
S'errands'
p5232
sI5241
S'lines'
p5233
sI5242
S'b._b._c.'
p5234
sI5243
S'linen'
p5235
sI5244
S'chief'
p5236
sI5245
S'laurie'
p5237
sI5246
S'addiction'
p5238
sI5247
S'lined'
p5239
sI5248
S'wilds'
p5240
sI5249
S'symbols'
p5241
sI5250
S'flattering'
p5242
sI5251
S'bunch'
p5243
sI5252
S'industries'
p5244
sI5253
S'tsh'
p5245
sI5254
S'la'
p5246
sI5255
S'labor'
p5247
sI5256
S'willing'
p5248
sI5257
S'criminal'
p5249
sI5258
S'stepped'
p5250
sI5259
S'dad'
p5251
sI5260
S'junction'
p5252
sI5261
S'greater'
p5253
sI5262
S'dan'
p5254
sI5263
S'spell'
p5255
sI5264
S'mention'
p5256
sI5265
S'cutting'
p5257
sI5266
S'courtroom'
p5258
sI5267
S'day'
p5259
sI5268
S'preschool'
p5260
sI5269
S'airports'
p5261
sI5270
S'l.'
p5262
sI5271
S'warned'
p5263
sI5272
S'morris'
p5264
sI5273
S'experienced'
p5265
sI5274
S'constraints'
p5266
sI5275
S'einstein'
p5267
sI5276
S'tubular'
p5268
sI5277
S'popping'
p5269
sI5278
S'matt'
p5270
sI5279
S'jerusalem'
p5271
sI5280
S'rep'
p5272
sI5281
S'arkansas'
p5273
sI5282
S'scriptural'
p5274
sI5283
S'lecture'
p5275
sI5284
S'electronics'
p5276
sI5285
S'announced'
p5277
sI5286
S'fourteen'
p5278
sI5287
S'approaches'
p5279
sI5288
S'bleed'
p5280
sI5289
S'receipts'
p5281
sI5290
S'interaction'
p5282
sI5291
S'yard'
p5283
sI5292
S'teleprompter'
p5284
sI5293
S'ruins'
p5285
sI5294
S'recipes'
p5286
sI5295
S'barriers'
p5287
sI5296
S'retail'
p5288
sI5297
S'south'
p5289
sI5298
S'finest'
p5290
sI5299
S'reaches'
p5291
sI5300
S'hey'
p5292
sI5301
S'embarrassed'
p5293
sI5302
S'reached'
p5294
sI5303
S'lounging'
p5295
sI5304
S'instill'
p5296
sI5305
S'ancient'
p5297
sI5306
S'thirties'
p5298
sI5307
S'monkey'
p5299
sI5308
S'pots'
p5300
sI5309
S'fahrenheit'
p5301
sI5310
S'palestine'
p5302
sI5311
S'pakistani'
p5303
sI5312
S'explanation'
p5304
sI5313
S'nobody'
p5305
sI5314
S'environmental'
p5306
sI5315
S'loved'
p5307
sI5316
S'heh'
p5308
sI5317
S'flashed'
p5309
sI5318
S'loves'
p5310
sI5319
S'lover'
p5311
sI5320
S'flasher'
p5312
sI5321
S'visited'
p5313
sI5322
S'd._v._d.s'
p5314
sI5323
S'comfortable'
p5315
sI5324
S'spicy'
p5316
sI5325
S'unlikely'
p5317
sI5326
S'have'
p5318
sI5327
S'throat'
p5319
sI5328
S'clunker'
p5320
sI5329
S'apparently'
p5321
sI5330
S'dallas'
p5322
sI5331
S'gravity'
p5323
sI5332
S'incentive'
p5324
sI5333
S'montgomery'
p5325
sI5334
S'mix'
p5326
sI5335
S'concerns'
p5327
sI5336
S'unless'
p5328
sI5337
S"where'd"
p5329
sI5338
S'starches'
p5330
sI5339
S"where's"
p5331
sI5340
S'eight'
p5332
sI5341
S'sally'
p5333
sI5342
S'payment'
p5334
sI5343
S'alaskan'
p5335
sI5344
S'collateral'
p5336
sI5345
S'gather'
p5337
sI5346
S'request'
p5338
sI5347
S'disease'
p5339
sI5348
S'callers'
p5340
sI5349
S'skinny'
p5341
sI5350
S'normally'
p5342
sI5351
S'selection'
p5343
sI5352
S'text'
p5344
sI5353
S'staff'
p5345
sI5354
S'coloring'
p5346
sI5355
S'knowledge'
p5347
sI5356
S'bernard'
p5348
sI5357
S'regularly'
p5349
sI5358
S'pull'
p5350
sI5359
S'beat'
p5351
sI5360
S'photography'
p5352
sI5361
S'coworker'
p5353
sI5362
S'bear'
p5354
sI5363
S'beam'
p5355
sI5364
S'perfection'
p5356
sI5365
S'timing'
p5357
sI5366
S'areas'
p5358
sI5367
S'ashtray'
p5359
sI5368
S'fixes'
p5360
sI5369
S'calling'
p5361
sI5370
S'mascara'
p5362
sI5371
S'tightening'
p5363
sI5372
S'fixed'
p5364
sI5373
S'farthest'
p5365
sI5374
S'exists'
p5366
sI5375
S'national'
p5367
sI5376
S'showdown'
p5368
sI5377
S'revolutions'
p5369
sI5378
S'u._s._a.'
p5370
sI5379
S"bally's"
p5371
sI5380
S'interview'
p5372
sI5381
S"brother's"
p5373
sI5382
S'pattern'
p5374
sI5383
S'discounts'
p5375
sI5384
S'difficulties'
p5376
sI5385
S'progress'
p5377
sI5386
S'hippies'
p5378
sI5387
S'superior'
p5379
sI5388
S'deliver'
p5380
sI5389
S'optional'
p5381
sI5390
S'toothbrush'
p5382
sI5391
S'instant'
p5383
sI5392
S'freely'
p5384
sI5393
S'taking'
p5385
sI5394
S'equal'
p5386
sI5395
S'trips'
p5387
sI5396
S'assure'
p5388
sI5397
S'busted'
p5389
sI5398
S'attributes'
p5390
sI5399
S'passing'
p5391
sI5400
S'darker'
p5392
sI5401
S'gel'
p5393
sI5402
S'comment'
p5394
sI5403
S'relevant'
p5395
sI5404
S'teasing'
p5396
sI5405
S'laugh'
p5397
sI5406
S'w._w._w.'
p5398
sI5407
S'mafia'
p5399
sI5408
S'pouring'
p5400
sI5409
S'brotherly'
p5401
sI5410
S'tremendous'
p5402
sI5411
S"it's"
p5403
sI5412
S'rapids'
p5404
sI5413
S'magnetized'
p5405
sI5414
S'permanent'
p5406
sI5415
S'certain'
p5407
sI5416
S'curtain'
p5408
sI5417
S"it'd"
p5409
sI5418
S'define'
p5410
sI5419
S'cop'
p5411
sI5420
S'airplanes'
p5412
sI5421
S'climate'
p5413
sI5422
S'finished'
p5414
sI5423
S'tense'
p5415
sI5424
S'angles'
p5416
sI5425
S'bull'
p5417
sI5426
S'fellow'
p5418
sI5427
S'volunteer'
p5419
sI5428
S'homes'
p5420
sI5429
S'multi'
p5421
sI5430
S'bye'
p5422
sI5431
S'welcoming'
p5423
sI5432
S'plain'
p5424
sI5433
S'promoter'
p5425
sI5434
S'promoted'
p5426
sI5435
S'handwriting'
p5427
sI5436
S'frustrating'
p5428
sI5437
S'trailer'
p5429
sI5438
S'helper'
p5430
sI5439
S'lawrenceville'
p5431
sI5440
S'hobbies'
p5432
sI5441
S'helped'
p5433
sI5442
S'claimed'
p5434
sI5443
S'partner'
p5435
sI5444
S'arabic'
p5436
sI5445
S'administration'
p5437
sI5446
S'shuttle'
p5438
sI5447
S'injured'
p5439
sI5448
S"arm's"
p5440
sI5449
S'practice'
p5441
sI5450
S'caters'
p5442
sI5451
S'selfish'
p5443
sI5452
S'reporting'
p5444
sI5453
S'sisters'
p5445
sI5454
S'yoga'
p5446
sI5455
S'judgment'
p5447
sI5456
S'francisco'
p5448
sI5457
S'insure'
p5449
sI5458
S'center'
p5450
sI5459
S'weapon'
p5451
sI5460
S'thought'
p5452
sI5461
S'oops'
p5453
sI5462
S'sets'
p5454
sI5463
S'position'
p5455
sI5464
S'muscle'
p5456
sI5465
S'usual'
p5457
sI5466
S'v._i._p.'
p5458
sI5467
S'stores'
p5459
sI5468
S'domestic'
p5460
sI5469
S'clinic'
p5461
sI5470
S'underlying'
p5462
sI5471
S'seats'
p5463
sI5472
S'dakota'
p5464
sI5473
S'tone'
p5465
sI5474
S'ads'
p5466
sI5475
S'lake'
p5467
sI5476
S'bench'
p5468
sI5477
S'add'
p5469
sI5478
S'seeming'
p5470
sI5479
S'spirals'
p5471
sI5480
S'citizen'
p5472
sI5481
S'ought'
p5473
sI5482
S'raven'
p5474
sI5483
S'tests'
p5475
sI5484
S'w._r._x.'
p5476
sI5485
S'dryer'
p5477
sI5486
S'insert'
p5478
sI5487
S'like'
p5479
sI5488
S'success'
p5480
sI5489
S'controlling'
p5481
sI5490
S'works'
p5482
sI5491
S'soft'
p5483
sI5492
S'italian'
p5484
sI5493
S'scurried'
p5485
sI5494
S'authority'
p5486
sI5495
S'hair'
p5487
sI5496
S'wider'
p5488
sI5497
S'infiltrated'
p5489
sI5498
S'proper'
p5490
sI5499
S'supportive'
p5491
sI5500
S'happens'
p5492
sI5501
S'vocabulary'
p5493
sI5502
S'bleeder'
p5494
sI5503
S'shelter'
p5495
sI5504
S'assuming'
p5496
sI5505
S'screwed'
p5497
sI5506
S'rockets'
p5498
sI5507
S'headlights'
p5499
sI5508
S'pepper'
p5500
sI5509
S'noise'
p5501
sI5510
S'slight'
p5502
sI5511
S'a-'
p5503
sI5512
S'host'
p5504
sI5513
S'although'
p5505
sI5514
S'periodically'
p5506
sI5515
S'panel'
p5507
sI5516
S'consumerism'
p5508
sI5517
S'actual'
p5509
sI5518
S'boards'
p5510
sI5519
S'introduced'
p5511
sI5520
S'afterall'
p5512
sI5521
S'socks'
p5513
sI5522
S'brands'
p5514
sI5523
S'guard'
p5515
sI5524
S'female'
p5516
sI5525
S'endorphins'
p5517
sI5526
S'blower'
p5518
sI5527
S'custard'
p5519
sI5528
S'adolescent'
p5520
sI5529
S'submarine'
p5521
sI5530
S'buckle'
p5522
sI5531
S'biggest'
p5523
sI5532
S'buy'
p5524
sI5533
S'chatting'
p5525
sI5534
S'bus'
p5526
sI5535
S'brand'
p5527
sI5536
S'sequel'
p5528
sI5537
S'but'
p5529
sI5538
S'reminds'
p5530
sI5539
S'repeated'
p5531
sI5540
S'wealthier'
p5532
sI5541
S'partially'
p5533
sI5542
S'wise'
p5534
sI5543
S'glory'
p5535
sI5544
S'dangerous'
p5536
sI5545
S'variations'
p5537
sI5546
S'flip'
p5538
sI5547
S'minutes'
p5539
sI5548
S'skating'
p5540
sI5549
S'penetrating'
p5541
sI5550
S'rabbits'
p5542
sI5551
S'deaths'
p5543
sI5552
S'handset'
p5544
sI5553
S'shooting'
p5545
sI5554
S'pit'
p5546
sI5555
S'campus'
p5547
sI5556
S'dressed'
p5548
sI5557
S'p._c.s'
p5549
sI5558
S'detail'
p5550
sI5559
S'sewer'
p5551
sI5560
S'sandy'
p5552
sI5561
S'dresses'
p5553
sI5562
S'traumatic'
p5554
sI5563
S'variation'
p5555
sI5564
S'christians'
p5556
sI5565
S'contraceptive'
p5557
sI5566
S'baker'
p5558
sI5567
S'hikes'
p5559
sI5568
S'yell'
p5560
sI5569
S'accidents'
p5561
sI5570
S'thunderstorms'
p5562
sI5571
S'limited'
p5563
sI5572
S'n._b._c.'
p5564
sI5573
S'hats'
p5565
sI5574
S"daughter's"
p5566
sI5575
S'sleep'
p5567
sI5576
S'appetite'
p5568
sI5577
S'hate'
p5569
sI5578
S'assembled'
p5570
sI5579
S'poorly'
p5571
sI5580
S'trolley'
p5572
sI5581
S'feeding'
p5573
sI5582
S'patches'
p5574
sI5583
S'crises'
p5575
sI5584
S'halogen'
p5576
sI5585
S'whatsoever'
p5577
sI5586
S'under'
p5578
sI5587
S'pride'
p5579
sI5588
S'regrets'
p5580
sI5589
S'risk'
p5581
sI5590
S'rise'
p5582
sI5591
S'every'
p5583
sI5592
S'jack'
p5584
sI5593
S'monkeys'
p5585
sI5594
S'missionary'
p5586
sI5595
S'school'
p5587
sI5596
S'parrot'
p5588
sI5597
S'venue'
p5589
sI5598
S'enjoy'
p5590
sI5599
S'bicycle'
p5591
sI5600
S'leaders'
p5592
sI5601
S'consistent'
p5593
sI5602
S'guidelines'
p5594
sI5603
S'direct'
p5595
sI5604
S'nail'
p5596
sI5605
S'surrounding'
p5597
sI5606
S'fabulous'
p5598
sI5607
S'friendships'
p5599
sI5608
S'estimated'
p5600
sI5609
S'fattening'
p5601
sI5610
S'blue'
p5602
sI5611
S'hide'
p5603
sI5612
S'christ'
p5604
sI5613
S'beaten'
p5605
sI5614
S'liberty'
p5606
sI5615
S'supplies'
p5607
sI5616
S"grandma's"
p5608
sI5617
S'kicked'
p5609
sI5618
S"york's"
p5610
sI5619
S'hundreds'
p5611
sI5620
S'studio'
p5612
sI5621
S'path'
p5613
sI5622
S'mozzarella'
p5614
sI5623
S'enron'
p5615
sI5624
S'digits'
p5616
sI5625
S'property'
p5617
sI5626
S'hunting'
p5618
sI5627
S'leaves'
p5619
sI5628
S'changed'
p5620
sI5629
S'museums'
p5621
sI5630
S'jogging'
p5622
sI5631
S'fulltime'
p5623
sI5632
S'mentor'
p5624
sI5633
S'changes'
p5625
sI5634
S'ridiculed'
p5626
sI5635
S'stray'
p5627
sI5636
S'straw'
p5628
sI5637
S'strap'
p5629
sI5638
S'patience'
p5630
sI5639
S'meats'
p5631
sI5640
S'philip'
p5632
sI5641
S'swings'
p5633
sI5642
S'would'
p5634
sI5643
S'hospital'
p5635
sI5644
S'm.'
p5636
sI5645
S'shaded'
p5637
sI5646
S'preview'
p5638
sI5647
S'breathe'
p5639
sI5648
S'ti'
p5640
sI5649
S'microwavable'
p5641
sI5650
S'phone'
p5642
sI5651
S'connecticut'
p5643
sI5652
S'pinching'
p5644
sI5653
S'excellent'
p5645
sI5654
S'must'
p5646
sI5655
S'shoot'
p5647
sI5656
S'join'
p5648
sI5657
S'cheapest'
p5649
sI5658
S'mm'
p5650
sI5659
S'install'
p5651
sI5660
S'mr'
p5652
sI5661
S'my'
p5653
sI5662
S'cussing'
p5654
sI5663
S'loosen'
p5655
sI5664
S'estate'
p5656
sI5665
S'joyous'
p5657
sI5666
S'times'
p5658
sI5667
S'attract'
p5659
sI5668
S'guarantee'
p5660
sI5669
S'ceremony'
p5661
sI5670
S'end'
p5662
sI5671
S'bunk'
p5663
sI5672
S'sitting'
p5664
sI5673
S'writers'
p5665
sI5674
S'toxin'
p5666
sI5675
S'c._i._a.'
p5667
sI5676
S'gate'
p5668
sI5677
S'eyeballs'
p5669
sI5678
S'badly'
p5670
sI5679
S'pokes'
p5671
sI5680
S'description'
p5672
sI5681
S'mess'
p5673
sI5682
S'demanding'
p5674
sI5683
S'jumping'
p5675
sI5684
S'parallel'
p5676
sI5685
S'funniest'
p5677
sI5686
S'ultimate'
p5678
sI5687
S'enter'
p5679
sI5688
S'plumbing'
p5680
sI5689
S'harlem'
p5681
sI5690
S'executed'
p5682
sI5691
S'over'
p5683
sI5692
S'fall'
p5684
sI5693
S'sickle'
p5685
sI5694
S'london'
p5686
sI5695
S'oven'
p5687
sI5696
S'digest'
p5688
sI5697
S'fittings'
p5689
sI5698
S'howdy'
p5690
sI5699
S'writing'
p5691
sI5700
S'destroyed'
p5692
sI5701
S'fade'
p5693
sI5702
S'glanced'
p5694
sI5703
S'iowa'
p5695
sI5704
S'diseases'
p5696
sI5705
S'prevented'
p5697
sI5706
S'accumulating'
p5698
sI5707
S'alex'
p5699
sI5708
S'potatoes'
p5700
sI5709
S'crunchy'
p5701
sI5710
S'chuck'
p5702
sI5711
S'detroit'
p5703
sI5712
S'filling'
p5704
sI5713
S'affiliate'
p5705
sI5714
S'victory'
p5706
sI5715
S'each'
p5707
sI5716
S'signing'
p5708
sI5717
S'fussing'
p5709
sI5718
S'poncho'
p5710
sI5719
S'saturday'
p5711
sI5720
S'large'
p5712
sI5721
S'driving'
p5713
sI5722
S'god'
p5714
sI5723
S'motel'
p5715
sI5724
S'pensacola'
p5716
sI5725
S'washed'
p5717
sI5726
S'laid'
p5718
sI5727
S'adjust'
p5719
sI5728
S'got'
p5720
sI5729
S'washer'
p5721
sI5730
S'independence'
p5722
sI5731
S'arizona'
p5723
sI5732
S'free'
p5724
sI5733
S'formation'
p5725
sI5734
S'rain'
p5726
sI5735
S'wanted'
p5727
sI5736
S'turntables'
p5728
sI5737
S'inexpensive'
p5729
sI5738
S'days'
p5730
sI5739
S'priorities'
p5731
sI5740
S'filter'
p5732
sI5741
S'heck'
p5733
sI5742
S'c._d.s'
p5734
sI5743
S'soda'
p5735
sI5744
S'onto'
p5736
sI5745
S'inspectors'
p5737
sI5746
S'rang'
p5738
sI5747
S'already'
p5739
sI5748
S'puck'
p5740
sI5749
S'coding'
p5741
sI5750
S'encouraging'
p5742
sI5751
S'hearing'
p5743
sI5752
S'restrict'
p5744
sI5753
S'fantasy'
p5745
sI5754
S'relations'
p5746
sI5755
S'insulation'
p5747
sI5756
S'scissors'
p5748
sI5757
S'toy'
p5749
sI5758
S'guinness'
p5750
sI5759
S'top'
p5751
sI5760
S'fiction'
p5752
sI5761
S'too'
p5753
sI5762
S'tom'
p5754
sI5763
S'percentage'
p5755
sI5764
S'urban'
p5756
sI5765
S'ceiling'
p5757
sI5766
S'murder'
p5758
sI5767
S'airwaves'
p5759
sI5768
S'centered'
p5760
sI5769
S'tool'
p5761
sI5770
S'brushes'
p5762
sI5771
S'leaking'
p5763
sI5772
S'took'
p5764
sI5773
S'motivates'
p5765
sI5774
S'weightlifting'
p5766
sI5775
S'western'
p5767
sI5776
S'walnut'
p5768
sI5777
S'babette'
p5769
sI5778
S'abandoning'
p5770
sI5779
S'brushed'
p5771
sI5780
S'bloated'
p5772
sI5781
S'classes'
p5773
sI5782
S'flame'
p5774
sI5783
S'bridge'
p5775
sI5784
S'fashion'
p5776
sI5785
S'ran'
p5777
sI5786
S'skinless'
p5778
sI5787
S'talking'
p5779
sI5788
S'ethnical'
p5780
sI5789
S'lunchtime'
p5781
sI5790
S'screws'
p5782
sI5791
S'relatively'
p5783
sI5792
S'nipples'
p5784
sI5793
S'scriptures'
p5785
sI5794
S'thoroughly'
p5786
sI5795
S'snow'
p5787
sI5796
S'brandon'
p5788
sI5797
S'oriented'
p5789
sI5798
S'client'
p5790
sI5799
S'derek'
p5791
sI5800
S'academy'
p5792
sI5801
S'creatures'
p5793
sI5802
S'rider'
p5794
sI5803
S'cookout'
p5795
sI5804
S"who've"
p5796
sI5805
S'though'
p5797
sI5806
S'rumble'
p5798
sI5807
S'arguing'
p5799
sI5808
S'plenty'
p5800
sI5809
S'o._c._d.'
p5801
sI5810
S'treats'
p5802
sI5811
S'devastating'
p5803
sI5812
S'flow'
p5804
sI5813
S'reputation'
p5805
sI5814
S'pineapple'
p5806
sI5815
S'entertaining'
p5807
sI5816
S'poisonous'
p5808
sI5817
S'inspire'
p5809
sI5818
S'contacted'
p5810
sI5819
S'reductions'
p5811
sI5820
S'random'
p5812
sI5821
S'pops'
p5813
sI5822
S'colors'
p5814
sI5823
S'radio'
p5815
sI5824
S'earth'
p5816
sI5825
S'bail'
p5817
sI5826
S'spite'
p5818
sI5827
S'situations'
p5819
sI5828
S'minnesota'
p5820
sI5829
S'shrine'
p5821
sI5830
S'mixture'
p5822
sI5831
S'watch'
p5823
sI5832
S'fluid'
p5824
sI5833
S'amazon'
p5825
sI5834
S'lamborghini'
p5826
sI5835
S'wedding'
p5827
sI5836
S'report'
p5828
sI5837
S'knocks'
p5829
sI5838
S'countries'
p5830
sI5839
S'rowing'
p5831
sI5840
S'twice'
p5832
sI5841
S'shots'
p5833
sI5842
S'automatic'
p5834
sI5843
S'farther'
p5835
sI5844
S'swept'
p5836
sI5845
S'habit'
p5837
sI5846
S'nut'
p5838
sI5847
S'resist'
p5839
sI5848
S'bed'
p5840
sI5849
S'disturbing'
p5841
sI5850
S'noodles'
p5842
sI5851
S'capacity'
p5843
sI5852
S'continually'
p5844
sI5853
S'grandmother'
p5845
sI5854
S'mud'
p5846
sI5855
S'finger'
p5847
sI5856
S'hopefully'
p5848
sI5857
S'mum'
p5849
sI5858
S"name's"
p5850
sI5859
S'discovery'
p5851
sI5860
S'adding'
p5852
sI5861
S'blaster'
p5853
sI5862
S'weak'
p5854
sI5863
S'however'
p5855
sI5864
S'boss'
p5856
sI5865
S'nightmares'
p5857
sI5866
S'wear'
p5858
sI5867
S'censorship'
p5859
sI5868
S'dedication'
p5860
sI5869
S'news'
p5861
sI5870
S'holds'
p5862
sI5871
S'drowsy'
p5863
sI5872
S'improve'
p5864
sI5873
S'faced'
p5865
sI5874
S'protect'
p5866
sI5875
S'fault'
p5867
sI5876
S'elm'
p5868
sI5877
S'jelly'
p5869
sI5878
S'players'
p5870
sI5879
S'games'
p5871
sI5880
S'mildly'
p5872
sI5881
S'faces'
p5873
sI5882
S'expense'
p5874
sI5883
S'exhibit'
p5875
sI5884
S'towels'
p5876
sI5885
S'majestic'
p5877
sI5886
S'trust'
p5878
sI5887
S'bathroom'
p5879
sI5888
S'shout'
p5880
sI5889
S'been'
p5881
sI5890
S'quickly'
p5882
sI5891
S'beep'
p5883
sI5892
S'confident'
p5884
sI5893
S'beer'
p5885
sI5894
S'expected'
p5886
sI5895
S'containers'
p5887
sI5896
S'loft'
p5888
sI5897
S'drugs'
p5889
sI5898
S'republicans'
p5890
sI5899
S'bladder'
p5891
sI5900
S'craft'
p5892
sI5901
S'extracurricular'
p5893
sI5902
S'catch'
p5894
sI5903
S'stillwater'
p5895
sI5904
S'safest'
p5896
sI5905
S'kentucky'
p5897
sI5906
S'lesser'
p5898
sI5907
S'teachers'
p5899
sI5908
S'stopping'
p5900
sI5909
S'procedure'
p5901
sI5910
S'accessories'
p5902
sI5911
S'experts'
p5903
sI5912
S'exterior'
p5904
sI5913
S'pathology'
p5905
sI5914
S'nike'
p5906
sI5915
S'suggest'
p5907
sI5916
S'wound'
p5908
sI5917
S'forehead'
p5909
sI5918
S'complex'
p5910
sI5919
S'several'
p5911
sI5920
S'moose'
p5912
sI5921
S'sings'
p5913
sI5922
S'pick'
p5914
sI5923
S'suburb'
p5915
sI5924
S'a._d._h._d.'
p5916
sI5925
S'characters'
p5917
sI5926
S'cycle'
p5918
sI5927
S'mentioning'
p5919
sI5928
S'shortly'
p5920
sI5929
S"mother's"
p5921
sI5930
S'charlie'
p5922
sI5931
S'ocean'
p5923
sI5932
S'savings'
p5924
sI5933
S'greatest'
p5925
sI5934
S'mother'
p5926
sI5935
S'hearts'
p5927
sI5936
S'dads'
p5928
sI5937
S'seasonal'
p5929
sI5938
S'leagues'
p5930
sI5939
S'graded'
p5931
sI5940
S'proposed'
p5932
sI5941
S'able'
p5933
sI5942
S'laptop'
p5934
sI5943
S'grades'
p5935
sI5944
S'thumbs'
p5936
sI5945
S'vibration'
p5937
sI5946
S'cherry'
p5938
sI5947
S'pharmacy'
p5939
sI5948
S'teenager'
p5940
sI5949
S'technological'
p5941
sI5950
S'humanity'
p5942
sI5951
S'gave'
p5943
sI5952
S'actresses'
p5944
sI5953
S'casting'
p5945
sI5954
S'bands'
p5946
sI5955
S'breaks'
p5947
sI5956
S'cultural'
p5948
sI5957
S'judge'
p5949
sI5958
S'burnt'
p5950
sI5959
S'advanced'
p5951
sI5960
S'apart'
p5952
sI5961
S'melting'
p5953
sI5962
S'gift'
p5954
sI5963
S'51'
p5955
sI5964
S'specific'
p5956
sI5965
S'offices'
p5957
sI5966
S'm._t._v.'
p5958
sI5967
S'hung'
p5959
sI5968
S'orlando'
p5960
sI5969
S'successfully'
p5961
sI5970
S'sponge'
p5962
sI5971
S'clubs'
p5963
sI5972
S'meters'
p5964
sI5973
S'election'
p5965
sI5974
S'contests'
p5966
sI5975
S'perfected'
p5967
sI5976
S'tutorial'
p5968
sI5977
S'armed'
p5969
sI5978
S'companions'
p5970
sI5979
S'mystified'
p5971
sI5980
S'ice'
p5972
sI5981
S'everything'
p5973
sI5982
S'cooped'
p5974
sI5983
S'christmas'
p5975
sI5984
S'officer'
p5976
sI5985
S'cord'
p5977
sI5986
S'core'
p5978
sI5987
S'sewing'
p5979
sI5988
S'deleted'
p5980
sI5989
S'brawl'
p5981
sI5990
S'corn'
p5982
sI5991
S'discount'
p5983
sI5992
S'panhandlers'
p5984
sI5993
S'plug'
p5985
sI5994
S'playroom'
p5986
sI5995
S'cowboy'
p5987
sI5996
S'attacks'
p5988
sI5997
S'dinner'
p5989
sI5998
S'plus'
p5990
sI5999
S'twitch'
p5991
sI6000
S'curry'
p5992
sI6001
S'civil'
p5993
sI6002
S'bath'
p5994
sI6003
S'accommodate'
p5995
sI6004
S'finely'
p5996
sI6005
S'rely'
p5997
sI6006
S'sunlight'
p5998
sI6007
S'class'
p5999
sI6008
S'stuck'
p6000
sI6009
S'fought'
p6001
sI6010
S'head'
p6002
sI6011
S'medium'
p6003
sI6012
S'amateur'
p6004
sI6013
S'differences'
p6005
sI6014
S'wireless'
p6006
sI6015
S'heat'
p6007
sI6016
S'hear'
p6008
sI6017
S'removed'
p6009
sI6018
S'barrio'
p6010
sI6019
S'dollhouse'
p6011
sI6020
S'bargain'
p6012
sI6021
S'ruined'
p6013
sI6022
S'decorate'
p6014
sI6023
S'latch'
p6015
sI6024
S'nerds'
p6016
sI6025
S'panicky'
p6017
sI6026
S'trim'
p6018
sI6027
S'glideride'
p6019
sI6028
S'sometime'
p6020
sI6029
S'shines'
p6021
sI6030
S'annoying'
p6022
sI6031
S'check'
p6023
sI6032
S'looked'
p6024
sI6033
S'faithful'
p6025
sI6034
S'no'
p6026
sI6035
S'whereas'
p6027
sI6036
S'tip'
p6028
sI6037
S'tim'
p6029
sI6038
S'setting'
p6030
sI6039
S'papers'
p6031
sI6040
S'tie'
p6032
sI6041
S'depot'
p6033
sI6042
S'unbalanced'
p6034
sI6043
S'picture'
p6035
sI6044
S'cleric'
p6036
sI6045
S'corrected'
p6037
sI6046
S'dustin'
p6038
sI6047
S'eiffel'
p6039
sI6048
S'flushes'
p6040
sI6049
S'discharge'
p6041
sI6050
S'younger'
p6042
sI6051
S'longer'
p6043
sI6052
S'n.'
p6044
sI6053
S'memorial'
p6045
sI6054
S'withhold'
p6046
sI6055
S'serious'
p6047
sI6056
S'stacks'
p6048
sI6057
S'neighbors'
p6049
sI6058
S'ron'
p6050
sI6059
S'alternatives'
p6051
sI6060
S'focus'
p6052
sI6061
S'leads'
p6053
sI6062
S'fusing'
p6054
sI6063
S'row'
p6055
sI6064
S'injure'
p6056
sI6065
S'icy'
p6057
sI6066
S'passage'
p6058
sI6067
S'environment'
p6059
sI6068
S'charge'
p6060
sI6069
S'indoctrination'
p6061
sI6070
S'stove'
p6062
sI6071
S'advantage'
p6063
sI6072
S'wallets'
p6064
sI6073
S'tanks'
p6065
sI6074
S'cook'
p6066
sI6075
S'emphasized'
p6067
sI6076
S'cool'
p6068
sI6077
S'couches'
p6069
sI6078
S'level'
p6070
sI6079
S'brother'
p6071
sI6080
S'cloudy'
p6072
sI6081
S'standards'
p6073
sI6082
S'quick'
p6074
sI6083
S'pork'
p6075
sI6084
S'drier'
p6076
sI6085
S'says'
p6077
sI6086
S'trend'
p6078
sI6087
S'obsolete'
p6079
sI6088
S'cyber'
p6080
sI6089
S'weatherproof'
p6081
sI6090
S'bake'
p6082
sI6091
S'chicken'
p6083
sI6092
S'drinks'
p6084
sI6093
S'stressful'
p6085
sI6094
S'constitution'
p6086
sI6095
S'debate'
p6087
sI6096
S'goes'
p6088
sI6097
S'lucille'
p6089
sI6098
S'reply'
p6090
sI6099
S'water'
p6091
sI6100
S'facelift'
p6092
sI6101
S'baseball'
p6093
sI6102
S'twentieth'
p6094
sI6103
S'groups'
p6095
sI6104
S'supplying'
p6096
sI6105
S'thirty'
p6097
sI6106
S'healthy'
p6098
sI6107
S'guilty'
p6099
sI6108
S'stomachs'
p6100
sI6109
S'cinnamon'
p6101
sI6110
S'weird'
p6102
sI6111
S'morals'
p6103
sI6112
S'purchases'
p6104
sI6113
S'threes'
p6105
sI6114
S'paralyzed'
p6106
sI6115
S'swallowed'
p6107
sI6116
S'crisis'
p6108
sI6117
S'handled'
p6109
sI6118
S'sports'
p6110
sI6119
S'handler'
p6111
sI6120
S'memory'
p6112
sI6121
S'today'
p6113
sI6122
S'roared'
p6114
sI6123
S'riot'
p6115
sI6124
S'sessions'
p6116
sI6125
S'clicking'
p6117
sI6126
S'chocolate'
p6118
sI6127
S'cases'
p6119
sI6128
S'edible'
p6120
sI6129
S'local'
p6121
sI6130
S'modified'
p6122
sI6131
S'judy'
p6123
sI6132
S'ferry'
p6124
sI6133
S'placements'
p6125
sI6134
S'nursing'
p6126
sI6135
S'figure'
p6127
sI6136
S'downfall'
p6128
sI6137
S'dropped'
p6129
sI6138
S'swedish'
p6130
sI6139
S'requirements'
p6131
sI6140
S'secured'
p6132
sI6141
S'eloquent'
p6133
sI6142
S'1'
sI6143
S'fourth'
p6134
sI6144
S'ensure'
p6135
sI6145
S'speaks'
p6136
sI6146
S'springfield'
p6137
sI6147
S'flavored'
p6138
sI6148
S'unbelievable'
p6139
sI6149
S'ballroom'
p6140
sI6150
S'information'
p6141
sI6151
S'granddaughter'
p6142
sI6152
S'eighty'
p6143
sI6153
S'crashed'
p6144
sI6154
S'd._c.'
p6145
sI6155
S'eighth'
p6146
sI6156
S'classroom'
p6147
sI6157
S'branches'
p6148
sI6158
S'liquid'
p6149
sI6159
S'purification'
p6150
sI6160
S'inform'
p6151
sI6161
S'branched'
p6152
sI6162
S'presario'
p6153
sI6163
S'exclusive'
p6154
sI6164
S'comfort'
p6155
sI6165
S'furnished'
p6156
sI6166
S'mainly'
p6157
sI6167
S'worship'
p6158
sI6168
S'apes'
p6159
sI6169
S"he's"
p6160
sI6170
S'chips'
p6161
sI6171
S'comic'
p6162
sI6172
S"he'd"
p6163
sI6173
S'platform'
p6164
sI6174
S'happened'
p6165
sI6175
S'lonely'
p6166
sI6176
S'qualifier'
p6167
sI6177
S'moms'
p6168
sI6178
S'underneath'
p6169
sI6179
S'warranted'
p6170
sI6180
S'qualified'
p6171
sI6181
S'campuses'
p6172
sI6182
S'execute'
p6173
sI6183
S'name'
p6174
sI6184
S'stabilize'
p6175
sI6185
S'corners'
p6176
sI6186
S'advent'
p6177
sI6187
S'possibilities'
p6178
sI6188
S'rangers'
p6179
sI6189
S'triceps'
p6180
sI6190
S'eighties'
p6181
sI6191
S'differential'
p6182
sI6192
S'torch'
p6183
sI6193
S'sprinkle'
p6184
sI6194
S'catching'
p6185
sI6195
S'plans'
p6186
sI6196
S'ultimately'
p6187
sI6197
S"america's"
p6188
sI6198
S'intercourse'
p6189
sI6199
S'factors'
p6190
sI6200
S'profit'
p6191
sI6201
S'oklahoma'
p6192
sI6202
S'factory'
p6193
sI6203
S"shouldn't"
p6194
sI6204
S'eagle'
p6195
sI6205
S'theory'
p6196
sI6206
S'contain'
p6197
sI6207
S'hulk'
p6198
sI6208
S'previews'
p6199
sI6209
S'flyer'
p6200
sI6210
S'curable'
p6201
sI6211
S'nightmarish'
p6202
sI6212
S'yup'
p6203
sI6213
S'calories'
p6204
sI6214
S'motion'
p6205
sI6215
S'turn'
p6206
sI6216
S'place'
p6207
sI6217
S'raleigh'
p6208
sI6218
S'swing'
p6209
sI6219
S'charleston'
p6210
sI6220
S'childhood'
p6211
sI6221
S'origin'
p6212
sI6222
S'revenue'
p6213
sI6223
S"baker's"
p6214
sI6224
S'coming'
p6215
sI6225
S'insist'
p6216
sI6226
S'bradshaw'
p6217
sI6227
S'plano'
p6218
sI6228
S'george'
p6219
sI6229
S'millions'
p6220
sI6230
S'rented'
p6221
sI6231
S'given'
p6222
sI6232
S'necessarily'
p6223
sI6233
S'district'
p6224
sI6234
S'plastic'
p6225
sI6235
S'cooling'
p6226
sI6236
S'convention'
p6227
sI6237
S'white'
p6228
sI6238
S'gives'
p6229
sI6239
S'exploring'
p6230
sI6240
S'releases'
p6231
sI6241
S'cope'
p6232
sI6242
S'season'
p6233
sI6243
S"men's"
p6234
sI6244
S'd._v._r.'
p6235
sI6245
S'released'
p6236
sI6246
S'copy'
p6237
sI6247
S'holder'
p6238
sI6248
S'population'
p6239
sI6249
S'wide'
p6240
sI6250
S'nathan'
p6241
sI6251
S'unfortunately'
p6242
sI6252
S'require'
p6243
sI6253
S'computer'
p6244
sI6254
S'cards'
p6245
sI6255
S'poisoning'
p6246
sI6256
S'marines'
p6247
sI6257
S'outcome'
p6248
sI6258
S'powder'
p6249
sI6259
S'and'
p6250
sI6260
S'pro'
p6251
sI6261
S'rent'
p6252
sI6262
S'exchanging'
p6253
sI6263
S'sells'
p6254
sI6264
S'pry'
p6255
sI6265
S'any'
p6256
sI6266
S'marathon'
p6257
sI6267
S'prosperity'
p6258
sI6268
S"farmer's"
p6259
sI6269
S'ideas'
p6260
sI6270
S'dining'
p6261
sI6271
S'ideal'
p6262
sI6272
S'strengths'
p6263
sI6273
S'surf'
p6264
sI6274
S'sure'
p6265
sI6275
S'multiple'
p6266
sI6276
S"grimm's"
p6267
sI6277
S'falls'
p6268
sI6278
S'boiling'
p6269
sI6279
S'cleared'
p6270
sI6280
S'icon'
p6271
sI6281
S'considered'
p6272
sI6282
S'later'
p6273
sI6283
S'hungry'
p6274
sI6284
S'koran'
p6275
sI6285
S'uncle'
p6276
sI6286
S'senior'
p6277
sI6287
S'applicator'
p6278
sI6288
S'perch'
p6279
sI6289
S'cheat'
p6280
sI6290
S'workshops'
p6281
sI6291
S'recipe'
p6282
sI6292
S'troy'
p6283
sI6293
S'spaces'
p6284
sI6294
S'southwestern'
p6285
sI6295
S'mister'
p6286
sI6296
S'gulf'
p6287
sI6297
S'favor'
p6288
sI6298
S'state'
p6289
sI6299
S'crime'
p6290
sI6300
S'lighten'
p6291
sI6301
S'jazz'
p6292
sI6302
S'begging'
p6293
sI6303
S'expectation'
p6294
sI6304
S'indulgences'
p6295
sI6305
S'lighter'
p6296
sI6306
S'trade'
p6297
sI6307
S'cautionary'
p6298
sI6308
S'freaking'
p6299
sI6309
S'regarding'
p6300
sI6310
S'aluminum'
p6301
sI6311
S'fainted'
p6302
sI6312
S'jokes'
p6303
sI6313
S'pants'
p6304
sI6314
S"y'all"
p6305
sI6315
S'whys'
p6306
sI6316
S'turntable'
p6307
sI6317
S'college'
p6308
sI6318
S'parking'
p6309
sI6319
S'encouraged'
p6310
sI6320
S'voluntary'
p6311
sI6321
S'farmers'
p6312
sI6322
S'federal'
p6313
sI6323
S'jeter'
p6314
sI6324
S'review'
p6315
sI6325
S'knoxville'
p6316
sI6326
S'commitments'
p6317
sI6327
S'weapons'
p6318
sI6328
S'outside'
p6319
sI6329
S'receivers'
p6320
sI6330
S'bump'
p6321
sI6331
S'multiplier'
p6322
sI6332
S'bigtime'
p6323
sI6333
S'cities'
p6324
sI6334
S'come'
p6325
sI6335
S'postage'
p6326
sI6336
S'reaction'
p6327
sI6337
S'missions'
p6328
sI6338
S'kicking'
p6329
sI6339
S'successes'
p6330
sI6340
S'region'
p6331
sI6341
S'quiet'
p6332
sI6342
S'contract'
p6333
sI6343
S'senator'
p6334
sI6344
S'railway'
p6335
sI6345
S'afterwards'
p6336
sI6346
S'color'
p6337
sI6347
S'pot'
p6338
sI6348
S'period'
p6339
sI6349
S'pop'
p6340
sI6350
S'satisfaction'
p6341
sI6351
S'jammed'
p6342
sI6352
S'endeavor'
p6343
sI6353
S'poll'
p6344
sI6354
S'nicole'
p6345
sI6355
S'turkey'
p6346
sI6356
S'rhinestones'
p6347
sI6357
S'peaceful'
p6348
sI6358
S'helicopter'
p6349
sI6359
S'hardly'
p6350
sI6360
S'laces'
p6351
sI6361
S'engine'
p6352
sI6362
S'direction'
p6353
sI6363
S'bypass'
p6354
sI6364
S'andrew'
p6355
sI6365
S'tiger'
p6356
sI6366
S'padlock'
p6357
sI6367
S'minister'
p6358
sI6368
S'penn'
p6359
sI6369
S'andrea'
p6360
sI6370
S'spirit'
p6361
sI6371
S'pilot'
p6362
sI6372
S'paying'
p6363
sI6373
S'shaft'
p6364
sI6374
S'myself'
p6365
sI6375
S'spiderman'
p6366
sI6376
S'cash'
p6367
sI6377
S'premature'
p6368
sI6378
S'cast'
p6369
sI6379
S'shops'
p6370
sI6380
S'punches'
p6371
sI6381
S'candies'
p6372
sI6382
S'telephone'
p6373
sI6383
S'discrepancy'
p6374
sI6384
S'good'
p6375
sI6385
S'ironic'
p6376
sI6386
S'helmet'
p6377
sI6387
S'resentful'
p6378
sI6388
S'author'
p6379
sI6389
S'granted'
p6380
sI6390
S'bowl'
p6381
sI6391
S'trip'
p6382
sI6392
S'macaroni'
p6383
sI6393
S'events'
p6384
sI6394
S'week'
p6385
sI6395
S'mockery'
p6386
sI6396
S'driver'
p6387
sI6397
S'driven'
p6388
sI6398
S'submarines'
p6389
sI6399
S'prospered'
p6390
sI6400
S'conductors'
p6391
sI6401
S'delicate'
p6392
sI6402
S'statue'
p6393
sI6403
S'footprint'
p6394
sI6404
S'changing'
p6395
sI6405
S'cartoon'
p6396
sI6406
S'vantage'
p6397
sI6407
S'pennsylvania'
p6398
sI6408
S'ranch'
p6399
sI6409
S'jeeze'
p6400
sI6410
S'without'
p6401
sI6411
S'components'
p6402
sI6412
S'model'
p6403
sI6413
S'reward'
p6404
sI6414
S'researchers'
p6405
sI6415
S'justify'
p6406
sI6416
S'when'
p6407
sI6417
S'actions'
p6408
sI6418
S'violent'
p6409
sI6419
S'kill'
p6410
sI6420
S'satin'
p6411
sI6421
S'halfway'
p6412
sI6422
S'blow'
p6413
sI6423
S'widest'
p6414
sI6424
S'hint'
p6415
sI6425
S"we've"
p6416
sI6426
S"everyone's"
p6417
sI6427
S'seems'
p6418
sI6428
S'except'
p6419
sI6429
S'falsely'
p6420
sI6430
S'blob'
p6421
sI6431
S'samples'
p6422
sI6432
S'hind'
p6423
sI6433
S'styles'
p6424
sI6434
S'holding'
p6425
sI6435
S'kills'
p6426
sI6436
S'fridge'
p6427
sI6437
S'confines'
p6428
sI6438
S'inflation'
p6429
sI6439
S'confined'
p6430
sI6440
S'accepted'
p6431
sI6441
S'furniture'
p6432
sI6442
S'towel'
p6433
sI6443
S'kennedy'
p6434
sI6444
S'gyms'
p6435
sI6445
S'donations'
p6436
sI6446
S'tower'
p6437
sI6447
S'joking'
p6438
sI6448
S'competition'
p6439
sI6449
S'table'
p6440
sI6450
S'intact'
p6441
sI6451
S'o.'
p6442
sI6452
S'slice'
p6443
sI6453
S'caribbean'
p6444
sI6454
S'mood'
p6445
sI6455
S'classmates'
p6446
sI6456
S'slick'
p6447
sI6457
S'stops'
p6448
sI6458
S'provides'
p6449
sI6459
S'provider'
p6450
sI6460
S'football'
p6451
sI6461
S'biofeedback'
p6452
sI6462
S'nails'
p6453
sI6463
S'communicate'
p6454
sI6464
S'kleenex'
p6455
sI6465
S's._p._n.'
p6456
sI6466
S'terrified'
p6457
sI6467
S'stereotypes'
p6458
sI6468
S'beaches'
p6459
sI6469
S'on'
p6460
sI6470
S'jeez'
p6461
sI6471
S'oh'
p6462
sI6472
S'of'
p6463
sI6473
S'stand'
p6464
sI6474
S'doo'
p6465
sI6475
S'or'
p6466
sI6476
S'ladies'
p6467
sI6477
S'communication'
p6468
sI6478
S'rice'
p6469
sI6479
S'dumbbells'
p6470
sI6480
S'rising'
p6471
sI6481
S'determine'
p6472
sI6482
S'gary'
p6473
sI6483
S'lastly'
p6474
sI6484
S'buds'
p6475
sI6485
S'congeniality'
p6476
sI6486
S'strictly'
p6477
sI6487
S'there'
p6478
sI6488
S'racism'
p6479
sI6489
S'strict'
p6480
sI6490
S'racist'
p6481
sI6491
S'cultures'
p6482
sI6492
S'valley'
p6483
sI6493
S'fish'
p6484
sI6494
S'a._g.'
p6485
sI6495
S'kittens'
p6486
sI6496
S'critters'
p6487
sI6497
S'regard'
p6488
sI6498
S'cabinet'
p6489
sI6499
S'slushy'
p6490
sI6500
S'ended'
p6491
sI6501
S'promote'
p6492
sI6502
S'faster'
p6493
sI6503
S'applying'
p6494
sI6504
S'wholesale'
p6495
sI6505
S'grass'
p6496
sI6506
S'toilet'
p6497
sI6507
S'taylor'
p6498
sI6508
S'taste'
p6499
sI6509
S'britain'
p6500
sI6510
S'tasty'
p6501
sI6511
S'aces'
p6502
sI6512
S'politics'
p6503
sI6513
S'spends'
p6504
sI6514
S'heather'
p6505
sI6515
S'deserve'
p6506
sI6516
S'rubber'
p6507
sI6517
S'roses'
p6508
sI6518
S'5'
sI6519
S'trash'
p6509
sI6520
S'requested'
p6510
sI6521
S'briefly'
p6511
sI6522
S'pillows'
p6512
sI6523
S'collaborative'
p6513
sI6524
S'separate'
p6514
sI6525
S'includes'
p6515
sI6526
S'flower'
p6516
sI6527
S'included'
p6517
sI6528
S'stocks'
p6518
sI6529
S'missed'
p6519
sI6530
S'clinically'
p6520
sI6531
S'calls'
p6521
sI6532
S'wife'
p6522
sI6533
S'invest'
p6523
sI6534
S'curve'
p6524
sI6535
S'missouri'
p6525
sI6536
S'directory'
p6526
sI6537
S'platter'
p6527
sI6538
S'all'
p6528
sI6539
S'chinese'
p6529
sI6540
S'scrappy'
p6530
sI6541
S'lack'
p6531
sI6542
S'dish'
p6532
sI6543
S'follow'
p6533
sI6544
S'mining'
p6534
sI6545
S'apartment'
p6535
sI6546
S'catastrophe'
p6536
sI6547
S'participants'
p6537
sI6548
S'thursday'
p6538
sI6549
S'program'
p6539
sI6550
S'dairy'
p6540
sI6551
S'depending'
p6541
sI6552
S'presentation'
p6542
sI6553
S'activities'
p6543
sI6554
S'woman'
p6544
sI6555
S'worse'
p6545
sI6556
S'song'
p6546
sI6557
S'far'
p6547
sI6558
S'rod'
p6548
sI6559
S'fat'
p6549
sI6560
S'coursing'
p6550
sI6561
S'sons'
p6551
sI6562
S'worst'
p6552
sI6563
S'awful'
p6553
sI6564
S'bubbles'
p6554
sI6565
S'treating'
p6555
sI6566
S'stimulus'
p6556
sI6567
S'list'
p6557
sI6568
S'grandfather'
p6558
sI6569
S'salute'
p6559
sI6570
S'lisa'
p6560
sI6571
S'conflicted'
p6561
sI6572
S'dexterity'
p6562
sI6573
S'rats'
p6563
sI6574
S'ten'
p6564
sI6575
S'tea'
p6565
sI6576
S'translating'
p6566
sI6577
S'rate'
p6567
sI6578
S'design'
p6568
sI6579
S'what'
p6569
sI6580
S'imported'
p6570
sI6581
S'sun'
p6571
sI6582
S'magnolia'
p6572
sI6583
S'anniversary'
p6573
sI6584
S'crush'
p6574
sI6585
S'version'
p6575
sI6586
S'discern'
p6576
sI6587
S'racing'
p6577
sI6588
S'guns'
p6578
sI6589
S'layers'
p6579
sI6590
S'toes'
p6580
sI6591
S'christian'
p6581
sI6592
S'relationships'
p6582
sI6593
S'supposedly'
p6583
sI6594
S'squatting'
p6584
sI6595
S'compressed'
p6585
sI6596
S'directions'
p6586
sI6597
S'tragedy'
p6587
sI6598
S'pleasant'
p6588
sI6599
S'naval'
p6589
sI6600
S'difficulty'
p6590
sI6601
S'allows'
p6591
sI6602
S'miniature'
p6592
sI6603
S'extremes'
p6593
sI6604
S'chain'
p6594
sI6605
S'camcorder'
p6595
sI6606
S'sticking'
p6596
sI6607
S'thankfully'
p6597
sI6608
S'suddenly'
p6598
sI6609
S'semester'
p6599
sI6610
S'appliances'
p6600
sI6611
S'proceed'
p6601
sI6612
S'garnish'
p6602
sI6613
S'minor'
p6603
sI6614
S'flat'
p6604
sI6615
S'israel'
p6605
sI6616
S'knows'
p6606
sI6617
S'definition'
p6607
sI6618
S'grabbing'
p6608
sI6619
S'hoffman'
p6609
sI6620
S'domination'
p6610
sI6621
S'stick'
p6611
sI6622
S'known'
p6612
sI6623
S'glad'
p6613
sI6624
S'toxins'
p6614
sI6625
S'equation'
p6615
sI6626
S'tennis'
p6616
sI6627
S'computers'
p6617
sI6628
S'pony'
p6618
sI6629
S'challenging'
p6619
sI6630
S'division'
p6620
sI6631
S'joints'
p6621
sI6632
S'sectioned'
p6622
sI6633
S'pong'
p6623
sI6634
S'chores'
p6624
sI6635
S'court'
p6625
sI6636
S'goal'
p6626
sI6637
S'rather'
p6627
sI6638
S'breaking'
p6628
sI6639
S'occasionally'
p6629
sI6640
S'explains'
p6630
sI6641
S'sandwich'
p6631
sI6642
S'okay'
p6632
sI6643
S'goopy'
p6633
sI6644
S'emulate'
p6634
sI6645
S'weaknesses'
p6635
sI6646
S'reflect'
p6636
sI6647
S'adventure'
p6637
sI6648
S'concentrating'
p6638
sI6649
S'short'
p6639
sI6650
S'susan'
p6640
sI6651
S'shady'
p6641
sI6652
S'shortening'
p6642
sI6653
S'shore'
p6643
sI6654
S'shade'
p6644
sI6655
S'multivitamin'
p6645
sI6656
S'encased'
p6646
sI6657
S'began'
p6647
sI6658
S'handlebars'
p6648
sI6659
S"don't"
p6649
sI6660
S'september'
p6650
sI6661
S'essence'
p6651
sI6662
S'mission'
p6652
sI6663
S'forceps'
p6653
sI6664
S'disabled'
p6654
sI6665
S'outraged'
p6655
sI6666
S'scientist'
p6656
sI6667
S'reconnect'
p6657
sI6668
S'avenue'
p6658
sI6669
S'precautionary'
p6659
sI6670
S'thirtieth'
p6660
sI6671
S'style'
p6661
sI6672
S'slipped'
p6662
sI6673
S'pray'
p6663
sI6674
S'inward'
p6664
sI6675
S'sale'
p6665
sI6676
S'mattress'
p6666
sI6677
S'harmless'
p6667
sI6678
S'parts'
p6668
sI6679
S'boneless'
p6669
sI6680
S'soccer'
p6670
sI6681
S'might'
p6671
sI6682
S'somebody'
p6672
sI6683
S'sucking'
p6673
sI6684
S'screwing'
p6674
sI6685
S'framework'
p6675
sI6686
S'communities'
p6676
sI6687
S'adventurous'
p6677
sI6688
S'bigger'
p6678
sI6689
S'instructions'
p6679
sI6690
S'nephews'
p6680
sI6691
S'mastered'
p6681
sI6692
S'letting'
p6682
sI6693
S'friendship'
p6683
sI6694
S'characterized'
p6684
sI6695
S'weighs'
p6685
sI6696
S'weight'
p6686
sI6697
S'generation'
p6687
sI6698
S'colder'
p6688
sI6699
S'used'
p6689
sI6700
S'pirated'
p6690
sI6701
S'expect'
p6691
sI6702
S'undertake'
p6692
sI6703
S'scratching'
p6693
sI6704
S'alcohol'
p6694
sI6705
S'wondered'
p6695
sI6706
S'dugout'
p6696
sI6707
S'health'
p6697
sI6708
S'hill'
p6698
sI6709
S'induced'
p6699
sI6710
S'friday'
p6700
sI6711
S'guess'
p6701
sI6712
S'cookie'
p6702
sI6713
S'teach'
p6703
sI6714
S'generate'
p6704
sI6715
S'leverage'
p6705
sI6716
S'thrown'
p6706
sI6717
S'thread'
p6707
sI6718
S"year's"
p6708
sI6719
S'prejudice'
p6709
sI6720
S'threat'
p6710
sI6721
S'divorce'
p6711
sI6722
S'throws'
p6712
sI6723
S'bushel'
p6713
sI6724
S'feed'
p6714
sI6725
S'connotation'
p6715
sI6726
S'unhealthy'
p6716
sI6727
S'feel'
p6717
sI6728
S'fancy'
p6718
sI6729
S'feet'
p6719
sI6730
S'brave'
p6720
sI6731
S'notify'
p6721
sI6732
S'fees'
p6722
sI6733
S'passes'
p6723
sI6734
S'story'
p6724
sI6735
S'temperature'
p6725
sI6736
S'script'
p6726
sI6737
S'gourmet'
p6727
sI6738
S'leading'
p6728
sI6739
S'hangs'
p6729
sI6740
S'strategy'
p6730
sI6741
S'passed'
p6731
sI6742
S'syrup'
p6732
sI6743
S'recovered'
p6733
sI6744
S'temptations'
p6734
sI6745
S'option'
p6735
sI6746
S'pump'
p6736
sI6747
S'exploded'
p6737
sI6748
S'hotel'
p6738
sI6749
S'luckily'
p6739
sI6750
S'convinced'
p6740
sI6751
S"media's"
p6741
sI6752
S'king'
p6742
sI6753
S'kind'
p6743
sI6754
S'throttle'
p6744
sI6755
S'double'
p6745
sI6756
S'instruction'
p6746
sI6757
S'colin'
p6747
sI6758
S'outrageous'
p6748
sI6759
S'darned'
p6749
sI6760
S'outdoors'
p6750
sI6761
S'cleaner'
p6751
sI6762
S'motivation'
p6752
sI6763
S'skyscrapers'
p6753
sI6764
S'outstanding'
p6754
sI6765
S'suspicious'
p6755
sI6766
S'booklets'
p6756
sI6767
S'cleaned'
p6757
sI6768
S'gall'
p6758
sI6769
S'sandwiched'
p6759
sI6770
S'nights'
p6760
sI6771
S'bacteria'
p6761
sI6772
S'moist'
p6762
sI6773
S'chairman'
p6763
sI6774
S'finding'
p6764
sI6775
S'irritated'
p6765
sI6776
S'foreman'
p6766
sI6777
S'added'
p6767
sI6778
S'electric'
p6768
sI6779
S'mentality'
p6769
sI6780
S'measures'
p6770
sI6781
S'reach'
p6771
sI6782
S'react'
p6772
sI6783
S'cigarette'
p6773
sI6784
S'fangled'
p6774
sI6785
S'nothing'
p6775
sI6786
S'seasons'
p6776
sI6787
S'measured'
p6777
sI6788
S'stands'
p6778
sI6789
S'grams'
p6779
sI6790
S'windows'
p6780
sI6791
S'traditional'
p6781
sI6792
S'notch'
p6782
sI6793
S'lying'
p6783
sI6794
S'stones'
p6784
sI6795
S'fond'
p6785
sI6796
S'aggravate'
p6786
sI6797
S'rocket'
p6787
sI6798
S'securing'
p6788
sI6799
S'endlessly'
p6789
sI6800
S'penalty'
p6790
sI6801
S"mom's"
p6791
sI6802
S'hip'
p6792
sI6803
S'his'
p6793
sI6804
S'hit'
p6794
sI6805
S'rose'
p6795
sI6806
S'longest'
p6796
sI6807
S'him'
p6797
sI6808
S'noises'
p6798
sI6809
S'investigate'
p6799
sI6810
S'cartoons'
p6800
sI6811
S'activity'
p6801
sI6812
S'wrote'
p6802
sI6813
S'consciously'
p6803
sI6814
S'bars'
p6804
sI6815
S'art'
p6805
sI6816
S'achieved'
p6806
sI6817
S'intelligence'
p6807
sI6818
S'defense'
p6808
sI6819
S'dumb'
p6809
sI6820
S'are'
p6810
sI6821
S'bark'
p6811
sI6822
S'arm'
p6812
sI6823
S'declined'
p6813
sI6824
S'spirited'
p6814
sI6825
S'visualize'
p6815
sI6826
S'threats'
p6816
sI6827
S'unions'
p6817
sI6828
S'creme'
p6818
sI6829
S'various'
p6819
sI6830
S'downturn'
p6820
sI6831
S"other's"
p6821
sI6832
S'latin'
p6822
sI6833
S'recently'
p6823
sI6834
S'creating'
p6824
sI6835
S'initially'
p6825
sI6836
S'sold'
p6826
sI6837
S'attention'
p6827
sI6838
S'confiscated'
p6828
sI6839
S'succeed'
p6829
sI6840
S'opposition'
p6830
sI6841
S'relying'
p6831
sI6842
S'prescription'
p6832
sI6843
S'license'
p6833
sI6844
S'roman'
p6834
sI6845
S'became'
p6835
sI6846
S'context'
p6836
sI6847
S'finds'
p6837
sI6848
S'flies'
p6838
sI6849
S'ranchers'
p6839
sI6850
S'reasons'
p6840
sI6851
S'sweet'
p6841
sI6852
S'sweep'
p6842
sI6853
S"hadn't"
p6843
sI6854
S'village'
p6844
sI6855
S'simpler'
p6845
sI6856
S'decline'
p6846
sI6857
S'overlook'
p6847
sI6858
S'political'
p6848
sI6859
S'due'
p6849
sI6860
S'dug'
p6850
sI6861
S'pc'
p6851
sI6862
S'reduction'
p6852
sI6863
S'whoa'
p6853
sI6864
S'woke'
p6854
sI6865
S'flight'
p6855
sI6866
S'pedals'
p6856
sI6867
S'firefighters'
p6857
sI6868
S'demand'
p6858
sI6869
S'condoms'
p6859
sI6870
S'rocking'
p6860
sI6871
S'instructor'
p6861
sI6872
S'plants'
p6862
sI6873
S'georgia'
p6863
sI6874
S'frozen'
p6864
sI6875
S'batch'
p6865
sI6876
S'homework'
p6866
sI6877
S'behavior'
p6867
sI6878
S'p.'
p6868
sI6879
S'welding'
p6869
sI6880
S'antithesis'
p6870
sI6881
S'disappointing'
p6871
sI6882
S'obstacle'
p6872
sI6883
S'rid'
p6873
sI6884
S'shirt'
p6874
sI6885
S'fading'
p6875
sI6886
S'delicious'
p6876
sI6887
S'9'
sI6888
S'daughters'
p6877
sI6889
S'higher'
p6878
sI6890
S'cartridge'
p6879
sI6891
S'cement'
p6880
sI6892
S'holidays'
p6881
sI6893
S'flown'
p6882
sI6894
S'moving'
p6883
sI6895
S'knack'
p6884
sI6896
S'lower'
p6885
sI6897
S'congregated'
p6886
sI6898
S'cheek'
p6887
sI6899
S'anybody'
p6888
sI6900
S'edgy'
p6889
sI6901
S'edge'
p6890
sI6902
S'machinery'
p6891
sI6903
S'bounced'
p6892
sI6904
S'pollen'
p6893
sI6905
S'knot'
p6894
sI6906
S'competitive'
p6895
sI6907
S'questions'
p6896
sI6908
S"think's"
p6897
sI6909
S'retired'
p6898
sI6910
S'continent'
p6899
sI6911
S'tables'
p6900
sI6912
S'adrienne'
p6901
sI6913
S'extracted'
p6902
sI6914
S'workers'
p6903
sI6915
S'exclusively'
p6904
sI6916
S'governmental'
p6905
sI6917
S'plateau'
p6906
sI6918
S'customers'
p6907
sI6919
S'advocate'
p6908
sI6920
S'unlimited'
p6909
sI6921
S'lincoln'
p6910
sI6922
S'feral'
p6911
sI6923
S'skeptical'
p6912
sI6924
S'modifications'
p6913
sI6925
S'rotate'
p6914
sI6926
S'separately'
p6915
sI6927
S'collect'
p6916
sI6928
S'unstable'
p6917
sI6929
S'essential'
p6918
sI6930
S'fucking'
p6919
sI6931
S'arrived'
p6920
sI6932
S'understood'
p6921
sI6933
S'candy'
p6922
sI6934
S'sauces'
p6923
sI6935
S'gradually'
p6924
sI6936
S'pros'
p6925
sI6937
S'market'
p6926
sI6938
S'tends'
p6927
sI6939
S'anna'
p6928
sI6940
S'jumps'
p6929
sI6941
S'martin'
p6930
sI6942
S'intense'
p6931
sI6943
S"mcdonald's"
p6932
sI6944
S'brooklyn'
p6933
sI6945
S'range'
p6934
sI6946
S'complimentary'
p6935
sI6947
S'wanna'
p6936
sI6948
S'credible'
p6937
sI6949
S'mommy'
p6938
sI6950
S'warmed'
p6939
sI6951
S'momma'
p6940
sI6952
S'drifted'
p6941
sI6953
S'impressed'
p6942
sI6954
S'rows'
p6943
sI6955
S'conceivably'
p6944
sI6956
S'tumble'
p6945
sI6957
S'question'
p6946
sI6958
S'fast'
p6947
sI6959
S"we're"
p6948
sI6960
S'conceivable'
p6949
sI6961
S'sections'
p6950
sI6962
S'files'
p6951
sI6963
S'mountains'
p6952
sI6964
S'plunge'
p6953
sI6965
S'dimaggio'
p6954
sI6966
S'cloth'
p6955
sI6967
S'upright'
p6956
sI6968
S'junior'
p6957
sI6969
S'raising'
p6958
sI6970
S'patriot'
p6959
sI6971
S'goodwill'
p6960
sI6972
S'fries'
p6961
sI6973
S"hasn't"
p6962
sI6974
S'highlight'
p6963
sI6975
S'z'
sI6976
S'called'
p6964
sI6977
S'bell'
p6965
sI6978
S'individuality'
p6966
sI6979
S'associated'
p6967
sI6980
S'worthwhile'
p6968
sI6981
S'warning'
p6969
sI6982
S'rally'
p6970
sI6983
S'steeper'
p6971
sI6984
S'rainy'
p6972
sI6985
S'lemon'
p6973
sI6986
S'conductor'
p6974
sI6987
S'peach'
p6975
sI6988
S'peace'
p6976
sI6989
S'nick'
p6977
sI6990
S'income'
p6978
sI6991
S'nice'
p6979
sI6992
S'mustard'
p6980
sI6993
S'problems'
p6981
sI6994
S'breasts'
p6982
sI6995
S'helping'
p6983
sI6996
S'meaning'
p6984
sI6997
S'fertilizer'
p6985
sI6998
S'suffers'
p6986
sI6999
S'happier'
p6987
sI7000
S'vice'
p6988
sI7001
S'weights'
p6989
sI7002
S'once'
p6990
sI7003
S'mardi'
p6991
sI7004
S'w._m._d.s'
p6992
sI7005
S'resistance'
p6993
sI7006
S'steve'
p6994
sI7007
S'windy'
p6995
sI7008
S'gang'
p6996
sI7009
S'adjustment'
p6997
sI7010
S'issues'
p6998
sI7011
S'languages'
p6999
sI7012
S'squeezing'
p7000
sI7013
S'stable'
p7001
sI7014
S'include'
p7002
sI7015
S'dramatically'
p7003
sI7016
S'dandy'
p7004
sI7017
S'confirmation'
p7005
sI7018
S'mainstream'
p7006
sI7019
S'spoon'
p7007
sI7020
S'drinking'
p7008
sI7021
S'posture'
p7009
sI7022
S'notes'
p7010
sI7023
S'dealt'
p7011
sI7024
S'businesses'
p7012
sI7025
S'someday'
p7013
sI7026
S'smaller'
p7014
sI7027
S"you'd"
p7015
sI7028
S'wrestling'
p7016
sI7029
S'fold'
p7017
sI7030
S'traveling'
p7018
sI7031
S'acid'
p7019
sI7032
S'makers'
p7020
sI7033
S'developed'
p7021
sI7034
S'compaq'
p7022
sI7035
S"man's"
p7023
sI7036
S'waiting'
p7024
sI7037
S'attire'
p7025
sI7038
S'chose'
p7026
sI7039
S'degree'
p7027
sI7040
S'sinuses'
p7028
sI7041
S'pushing'
p7029
sI7042
S'underwood'
p7030
sI7043
S'youngest'
p7031
sI7044
S'desired'
p7032
sI7045
S'explore'
p7033
sI7046
S'separation'
p7034
sI7047
S'sexy'
p7035
sI7048
S'larger'
p7036
sI7049
S'leaving'
p7037
sI7050
S'spines'
p7038
sI7051
S'helpers'
p7039
sI7052
S'nervous'
p7040
sI7053
S'spices'
p7041
sI7054
S"dad's"
p7042
sI7055
S'initials'
p7043
sI7056
S'shovel'
p7044
sI7057
S'apple'
p7045
sI7058
S'egypt'
p7046
sI7059
S'shoved'
p7047
sI7060
S'hardy'
p7048
sI7061
S'motor'
p7049
sI7062
S'duck'
p7050
sI7063
S'apply'
p7051
sI7064
S'redo'
p7052
sI7065
S'use'
p7053
sI7066
S'fee'
p7054
sI7067
S'from'
p7055
sI7068
S'stream'
p7056
sI7069
S'consumption'
p7057
sI7070
S'iced'
p7058
sI7071
S'few'
p7059
sI7072
S'eagles'
p7060
sI7073
S'sort'
p7061
sI7074
S'parliament'
p7062
sI7075
S'porch'
p7063
sI7076
S'inclined'
p7064
sI7077
S'musician'
p7065
sI7078
S'infection'
p7066
sI7079
S'connie'
p7067
sI7080
S'women'
p7068
sI7081
S'skydiving'
p7069
sI7082
S'anywhere'
p7070
sI7083
S'posing'
p7071
sI7084
S'abstinence'
p7072
sI7085
S'performed'
p7073
sI7086
S'tap'
p7074
sI7087
S'mowing'
p7075
sI7088
S'matinee'
p7076
sI7089
S'tax'
p7077
sI7090
S'dripping'
p7078
sI7091
S'tae'
p7079
sI7092
S'carrot'
p7080
sI7093
S'something'
p7081
sI7094
S'onions'
p7082
sI7095
S'sir'
p7083
sI7096
S'united'
p7084
sI7097
S'sit'
p7085
sI7098
S'six'
p7086
sI7099
S'struggles'
p7087
sI7100
S'fortunate'
p7088
sI7101
S'brian'
p7089
sI7102
S'carrier'
p7090
sI7103
S'slamming'
p7091
sI7104
S'instead'
p7092
sI7105
S'panic'
p7093
sI7106
S'sin'
p7094
sI7107
S'tension'
p7095
sI7108
S'express'
p7096
sI7109
S'cupboard'
p7097
sI7110
S'hazard'
p7098
sI7111
S'impulsive'
p7099
sI7112
S'perjury'
p7100
sI7113
S'abuse'
p7101
sI7114
S'wrist'
p7102
sI7115
S'ethnic'
p7103
sI7116
S'daycare'
p7104
sI7117
S'light'
p7105
sI7118
S'straps'
p7106
sI7119
S'honestly'
p7107
sI7120
S"environment's"
p7108
sI7121
S'joanne'
p7109
sI7122
S'looks'
p7110
sI7123
S'contaminated'
p7111
sI7124
S'underwater'
p7112
sI7125
S'complicate'
p7113
sI7126
S'tyler'
p7114
sI7127
S'choose'
p7115
sI7128
S'orange'
p7116
sI7129
S'covered'
p7117
sI7130
S'holiday'
p7118
sI7131
S'crowds'
p7119
sI7132
S'rat'
p7120
sI7133
S'crash'
p7121
sI7134
S'contention'
p7122
sI7135
S'pecans'
p7123
sI7136
S'flour'
p7124
sI7137
S'material'
p7125
sI7138
S'flew'
p7126
sI7139
S'invitations'
p7127
sI7140
S'republican'
p7128
sI7141
S'progressive'
p7129
sI7142
S'edit'
p7130
sI7143
S'billy'
p7131
sI7144
S'transmitted'
p7132
sI7145
S'trap'
p7133
sI7146
S'tray'
p7134
sI7147
S'studios'
p7135
sI7148
S'cry'
p7136
sI7149
S'related'
p7137
sI7150
S'our'
p7138
sI7151
S'out'
p7139
sI7152
S'crashes'
p7140
sI7153
S'sentiment'
p7141
sI7154
S'frontier'
p7142
sI7155
S'cerebral'
p7143
sI7156
S'chaos'
p7144
sI7157
S'supports'
p7145
sI7158
S'integrated'
p7146
sI7159
S'sculpting'
p7147
sI7160
S'dictionary'
p7148
sI7161
S'molly'
p7149
sI7162
S'workup'
p7150
sI7163
S'york'
p7151
sI7164
S'conflicts'
p7152
sI7165
S'anyhow'
p7153
sI7166
S'repairing'
p7154
sI7167
S'organic'
p7155
sI7168
S'waterloo'
p7156
sI7169
S'conversation'
p7157
sI7170
S'outlandish'
p7158
sI7171
S'adrian'
p7159
sI7172
S'biting'
p7160
sI7173
S"doesn't"
p7161
sI7174
S'overtime'
p7162
sI7175
S'accent'
p7163
sI7176
S'their'
p7164
sI7177
S"god's"
p7165
sI7178
S'boil'
p7166
sI7179
S'misunderstood'
p7167
sI7180
S'reposition'
p7168
sI7181
S'shell'
p7169
sI7182
S'x-rays'
p7170
sI7183
S'shelf'
p7171
sI7184
S'doomed'
p7172
sI7185
S'regards'
p7173
sI7186
S'simulate'
p7174
sI7187
S'july'
p7175
sI7188
S'astounded'
p7176
sI7189
S'institution'
p7177
sI7190
S'boring'
p7178
sI7191
S'richer'
p7179
sI7192
S'limiting'
p7180
sI7193
S'patients'
p7181
sI7194
S'clip'
p7182
sI7195
S'splatter'
p7183
sI7196
S'teenagers'
p7184
sI7197
S"canada's"
p7185
sI7198
S'linked'
p7186
sI7199
S'catholic'
p7187
sI7200
S'afraid'
p7188
sI7201
S'angle'
p7189
sI7202
S'allergies'
p7190
sI7203
S'agency'
p7191
sI7204
S'which'
p7192
sI7205
S'loudest'
p7193
sI7206
S'combat'
p7194
sI7207
S'knees'
p7195
sI7208
S'who'
p7196
sI7209
S'harmful'
p7197
sI7210
S'fortieth'
p7198
sI7211
S'alarmed'
p7199
sI7212
S'why'
p7200
sI7213
S'astro'
p7201
sI7214
S'refreshing'
p7202
sI7215
S'pipe'
p7203
sI7216
S'guinea'
p7204
sI7217
S'gain'
p7205
sI7218
S'brenda'
p7206
sI7219
S'chances'
p7207
sI7220
S'agreed'
p7208
sI7221
S'purely'
p7209
sI7222
S'planning'
p7210
sI7223
S'democrats'
p7211
sI7224
S'dorothy'
p7212
sI7225
S'fear'
p7213
sI7226
S'pleased'
p7214
sI7227
S'nearer'
p7215
sI7228
S'ha'
p7216
sI7229
S'surroundings'
p7217
sI7230
S'sunflowers'
p7218
sI7231
S'combo'
p7219
sI7232
S'thousands'
p7220
sI7233
S'overeating'
p7221
sI7234
S'watching'
p7222
sI7235
S'ones'
p7223
sI7236
S'words'
p7224
sI7237
S'coordinating'
p7225
sI7238
S'bronco'
p7226
sI7239
S'spur'
p7227
sI7240
S'swindle'
p7228
sI7241
S'belts'
p7229
sI7242
S'married'
p7230
sI7243
S'waterfalls'
p7231
sI7244
S'generations'
p7232
sI7245
S'view'
p7233
sI7246
S'europe'
p7234
sI7247
S'unisom'
p7235
sI7248
S'expel'
p7236
sI7249
S'fantastically'
p7237
sI7250
S'closer'
p7238
sI7251
S'televised'
p7239
sI7252
S'closet'
p7240
sI7253
S'meatballs'
p7241
sI7254
S'genius'
p7242
sI7255
S'fifties'
p7243
sI7256
S'closed'
p7244
sI7257
S'limit'
p7245
sI7258
S'frustrated'
p7246
sI7259
S'bought'
p7247
sI7260
S'weighing'
p7248
sI7261
S'exam'
p7249
sI7262
S'opening'
p7250
sI7263
S'joy'
p7251
sI7264
S'embarrassment'
p7252
sI7265
S'job'
p7253
sI7266
S'joe'
p7254
sI7267
S'jog'
p7255
sI7268
S'commands'
p7256
sI7269
S'budgeting'
p7257
sI7270
S'reconnecting'
p7258
sI7271
S'april'
p7259
sI7272
S'grain'
p7260
sI7273
S'unclear'
p7261
sI7274
S'wall'
p7262
sI7275
S'shoving'
p7263
sI7276
S'walk'
p7264
sI7277
S'packaging'
p7265
sI7278
S'worldly'
p7266
sI7279
S'respect'
p7267
sI7280
S'provinces'
p7268
sI7281
S'cavities'
p7269
sI7282
S'decent'
p7270
sI7283
S'hunters'
p7271
sI7284
S'agreements'
p7272
sI7285
S'remedies'
p7273
sI7286
S'mike'
p7274
sI7287
S'nickel'
p7275
sI7288
S'painted'
p7276
sI7289
S'sufficient'
p7277
sI7290
S'crappy'
p7278
sI7291
S'folding'
p7279
sI7292
S'present'
p7280
sI7293
S'unlike'
p7281
sI7294
S'will'
p7282
sI7295
S'wild'
p7283
sI7296
S'cutter'
p7284
sI7297
S'layer'
p7285
sI7298
S'ringing'
p7286
sI7299
S'lightweight'
p7287
sI7300
S'perhaps'
p7288
sI7301
S'cross'
p7289
sI7302
S'unite'
p7290
sI7303
S'member'
p7291
sI7304
S'retailing'
p7292
sI7305
S'largest'
p7293
sI7306
S'inch'
p7294
sI7307
S'gets'
p7295
sI7308
S'tomatoes'
p7296
sI7309
S'difficult'
p7297
sI7310
S'elbows'
p7298
sI7311
S'slave'
p7299
sI7312
S'conceived'
p7300
sI7313
S'disagree'
p7301
sI7314
S'student'
p7302
sI7315
S'pedal'
p7303
sI7316
S'collar'
p7304
sI7317
S'warming'
p7305
sI7318
S'chattanooga'
p7306
sI7319
S'whole'
p7307
sI7320
S'contest'
p7308
sI7321
S'banging'
p7309
sI7322
S'fighting'
p7310
sI7323
S'english'
p7311
sI7324
S'bending'
p7312
sI7325
S'carrie'
p7313
sI7326
S'cried'
p7314
sI7327
S'heavily'
p7315
sI7328
S"should've"
p7316
sI7329
S'wealthy'
p7317
sI7330
S'obtain'
p7318
sI7331
S'batteries'
p7319
sI7332
S'fishing'
p7320
sI7333
S'lettuce'
p7321
sI7334
S'happiness'
p7322
sI7335
S'rapid'
p7323
sI7336
S'console'
p7324
sI7337
S'panther'
p7325
sI7338
S'guts'
p7326
sI7339
S'sky'
p7327
sI7340
S'capabilities'
p7328
sI7341
S'other'
p7329
sI7342
S'attractive'
p7330
sI7343
S'usage'
p7331
sI7344
S'ski'
p7332
sI7345
S'branch'
p7333
sI7346
S"who's"
p7334
sI7347
S'term'
p7335
sI7348
S'know'
p7336
sI7349
S'presume'
p7337
sI7350
S'press'
p7338
sI7351
S'helpful'
p7339
sI7352
S'miami'
p7340
sI7353
S'loses'
p7341
sI7354
S'taxpayers'
p7342
sI7355
S'tennessee'
p7343
sI7356
S'james'
p7344
sI7357
S'pasty'
p7345
sI7358
S"why's"
p7346
sI7359
S'because'
p7347
sI7360
S'sequence'
p7348
sI7361
S'scared'
p7349
sI7362
S'platforms'
p7350
sI7363
S'growth'
p7351
sI7364
S'employment'
p7352
sI7365
S'cutters'
p7353
sI7366
S'jeremy'
p7354
sI7367
S'lead'
p7355
sI7368
S'leak'
p7356
sI7369
S'breakthroughs'
p7357
sI7370
S'lean'
p7358
sI7371
S'mines'
p7359
sI7372
S'leap'
p7360
sI7373
S'leader'
p7361
sI7374
S'locate'
p7362
sI7375
S'birthday'
p7363
sI7376
S'ripped'
p7364
sI7377
S'obey'
p7365
sI7378
S'pasta'
p7366
sI7379
S'slug'
p7367
sI7380
S'rare'
p7368
sI7381
S'carried'
p7369
sI7382
S'extension'
p7370
sI7383
S'getting'
p7371
sI7384
S'biscuit'
p7372
sI7385
S'shipping'
p7373
sI7386
S'carries'
p7374
sI7387
S'swear'
p7375
sI7388
S'sweat'
p7376
sI7389
S'warranty'
p7377
sI7390
S'own'
p7378
sI7391
S'wilderness'
p7379
sI7392
S'owe'
p7380
sI7393
S'travelers'
p7381
sI7394
S'fundraiser'
p7382
sI7395
S'weather'
p7383
sI7396
S'promise'
p7384
sI7397
S'brush'
p7385
sI7398
S'fired'
p7386
sI7399
S'convicted'
p7387
sI7400
S'van'
p7388
sI7401
S'shoveled'
p7389
sI7402
S'grapevine'
p7390
sI7403
S'transfer'
p7391
sI7404
S'cinderella'
p7392
sI7405
S'spiral'
p7393
sI7406
S'trenches'
p7394
sI7407
S'kidding'
p7395
sI7408
S'intention'
p7396
sI7409
S'fuses'
p7397
sI7410
S'powdered'
p7398
sI7411
S'kane'
p7399
sI7412
S"i've"
p7400
sI7413
S'bitches'
p7401
sI7414
S'volume'
p7402
sI7415
S'automated'
p7403
sI7416
S'squeeze'
p7404
sI7417
S'made'
p7405
sI7418
S'temp'
p7406
sI7419
S'whether'
p7407
sI7420
S'distract'
p7408
sI7421
S'record'
p7409
sI7422
S'below'
p7410
sI7423
S'cake'
p7411
sI7424
S'demonstrate'
p7412
sI7425
S'block'
p7413
sI7426
S'horrific'
p7414
sI7427
S'intimidating'
p7415
sI7428
S'inadequate'
p7416
sI7429
S'fertilizers'
p7417
sI7430
S'goodness'
p7418
sI7431
S'reflecting'
p7419
sI7432
S'couponing'
p7420
sI7433
S'naming'
p7421
sI7434
S'incredible'
p7422
sI7435
S'percent'
p7423
sI7436
S'illinois'
p7424
sI7437
S'book'
p7425
sI7438
S'boom'
p7426
sI7439
S'sick'
p7427
sI7440
S'incredibly'
p7428
sI7441
S'clicks'
p7429
sI7442
S'lance'
p7430
sI7443
S'junk'
p7431
sI7444
S'kinds'
p7432
sI7445
S'june'
p7433
sI7446
S'margaret'
p7434
sI7447
S'accomplish'
p7435
sI7448
S'kinda'
p7436
sI7449
S'sandler'
p7437
sI7450
S'cliff'
p7438
sI7451
S'expands'
p7439
sI7452
S'intentionally'
p7440
sI7453
S'dominoes'
p7441
sI7454
S'sleeves'
p7442
sI7455
S'pods'
p7443
s.